******************************************************************************
                  TI ARM Linker PC v20.2.5                     
******************************************************************************
>> Linked Wed Jun  1 11:28:19 2022

OUTPUT FILE NAME:   <EGH456MotorProject.out>
ENTRY POINT SYMBOL: "_c_int00"  address: 0000d269


MEMORY CONFIGURATION

         name            origin    length      used     unused   attr    fill
----------------------  --------  ---------  --------  --------  ----  --------
  FLASH                 00000000   00100000  0001915e  000e6ea2  R  X
  SRAM                  20000000   00040000  00005f04  0003a0fc  RW X


SEGMENT ALLOCATION MAP

run origin  load origin   length   init length attrs members
----------  ----------- ---------- ----------- ----- -------
00000000    00000000    00019168   00019168    r-x
  00000000    00000000    0000003c   0000003c    r-- .resetVecs
  00000040    00000040    00010a12   00010a12    r-x .text
  00010a58    00010a58    000082b8   000082b8    r-- .const
  00018d10    00018d10    00000458   00000458    r-- .cinit
20000000    20000000    00000360   00000000    rw-
  20000000    20000000    00000360   00000000    rw- .vecs
20000400    20000400    00005ba8   00000000    rw-
  20000400    20000400    00004a9c   00000000    rw- .bss
  20004ea0    20004ea0    00000d08   00000000    rw- .data
  20005ba8    20005ba8    00000400   00000000    rw- .stack


SECTION ALLOCATION MAP

 output                                  attributes/
section   page    origin      length       input sections
--------  ----  ----------  ----------   ----------------
.text      0    00000040    00010a12     
                  00000040    00000a4e     rtsv7M4_T_le_v4SPD16_eabi.lib : _printfi.c.obj (.text:__TI_printfi)
                  00000a8e    00000002                                   : _lock.c.obj (.text:_nop)
                  00000a90    000006ac     MotorLib.lib : motorlib.obj (.text)
                  0000113c    000005e4     Motor.obj (.text:RegulateSpeed)
                  00001720    00000430     sysbios.aem4f : BIOS.obj (.text:ti_sysbios_family_arm_m3_Hwi_excDumpRegs__I)
                  00001b50    0000039c     GlobalDraw.obj (.text:MotorPage)
                  00001eec    00000394     GlobalDraw.obj (.text:GraphPrimitive)
                  00002280    00000378     GlobalDraw.obj (.text:SensorPage)
                  000025f8    00000374     grlib.lib : image.obj (.text:InternalImageDraw)
                  0000296c    0000034c     ti.targets.arm.rtsarm.aem4f : System.oem4f (.text:xdc_runtime_System_doPrint__I)
                  00002cb8    00000320     sysbios.aem4f : BIOS.obj (.text:ti_sysbios_knl_Event_pend__E)
                  00002fd8    000002f8     grlib.lib : image.obj (.text:PixelTransparentDraw)
                  000032d0    000002c6               : slider.obj (.text:SliderPaint)
                  00003596    00000002     rtsv7M4_T_le_v4SPD16_eabi.lib : div0.asm.obj (.text)
                  00003598    000002b0     Clock.obj (.text:timeConvert)
                  00003848    000002a4     sysbios.aem4f : BIOS.obj (.text:ti_sysbios_knl_Semaphore_pend__E)
                  00003aec    000002a0     GlobalDraw.obj (.text:TopBarDraw)
                  00003d8c    00000270     rtsv7M4_T_le_v4SPD16_eabi.lib : _printfi.c.obj (.text:_pconv_a)
                  00003ffc    00000004     driverlib.lib : i2c.obj (.text:I2CMasterControl)
                  00004000    0000026c     sysbios.aem4f : BIOS.obj (.text:ti_sysbios_heaps_HeapMem_free__E)
                  0000426c    00000268     touch.obj (.text:TouchScreenDebouncer)
                  000044d4    00000254     grlib.lib : string.obj (.text:GrFontGlyphRender)
                  00004728    00000250     sysbios.aem4f : BIOS.obj (.text:ti_sysbios_heaps_HeapMem_alloc__E)
                  00004978    00000234                   : BIOS.obj (.text:ti_sysbios_knl_Task_Instance_finalize__E)
                  00004bac    00000004     driverlib.lib : i2c.obj (.text:I2CMasterDataGet)
                  00004bb0    0000021c     sysbios.aem4f : BIOS.obj (.text:ti_sysbios_family_arm_lm4_Timer_Instance_init__E)
                  00004dcc    0000020c     drivers_tivaware.aem4f : UARTTiva.oem4f (.text:UARTTiva_open)
                  00004fd8    00000204     Boot.aem4f : Boot_sysctl.oem4f (.text:ti_catalog_arm_cortexm4_tiva_ce_Boot_sysCtlClockFreqSetI__I)
                  000051dc    00000200     rtsv7M4_T_le_v4SPD16_eabi.lib : s_exp2.c.obj (.text:exp2)
                  000053dc    000001f8     GlobalDraw.obj (.text:updateSensorPage)
                  000055d4    00000004     driverlib.lib : i2c.obj (.text:I2CMasterDataPut)
                  000055d8    000001f4     sysbios.aem4f : BIOS.obj (.text:ti_sysbios_family_arm_m3_Hwi_excHandlerMax__I)
                  000057cc    000001e8     empty.obj (.text:main)
                  000059b4    000001e4     Kentec320x240x16_ssd2119_spi.obj (.text:Kentec320x240x16_SSD2119Init)
                  00005b98    000001dc     Kentec320x240x16_ssd2119_spi.obj (.text:Kentec320x240x16_SSD2119PixelDrawMultiple)
                  00005d74    000001d4     sensors.obj (.text:readOptFxn)
                  00005f48    000001d0     rtsv7M4_T_le_v4SPD16_eabi.lib : _printfi.c.obj (.text:_pconv_g)
                  00006118    000001c8     sysbios.aem4f : BIOS.obj (.text:ti_sysbios_knl_Task_sleep__E)
                  000062e0    000001c0                   : BIOS.obj (.text:ti_sysbios_knl_Task_Instance_init__E)
                  000064a0    000001b6     rtsv7M4_T_le_v4SPD16_eabi.lib : fd_add_t2.asm.obj (.text)
                  00006656    00000002     empty_pem4f.oem4f (.text:ti_sysbios_BIOS_nullFunc__I)
                  00006658    000001a4     pinout.obj (.text:PinoutSet)
                  000067fc    00000004     driverlib.lib : uart.obj (.text:UARTIntClear)
                  00006800    000001a0     sysbios.aem4f : BIOS.obj (.text:ti_sysbios_gates_GateMutexPri_enter__E)
                  000069a0    0000019c     GlobalDraw.obj (.text:UpdateGraphPlot)
                  00006b3c    00000190     grlib.lib : canvas.obj (.text:CanvasPaint)
                  00006ccc    00000184     empty.obj (.text:heartBeatFxn)
                  00006e50    0000017e     grlib.lib : pushbutton.obj (.text:RectangularButtonPaint)
                  00006fce    00000002     empty_pem4f.oem4f (.text:xdc_runtime_Startup_reset__I)
                  00006fd0    00000178     touch.obj (.text:TouchScreenIntHandler)
                  00007148    00000174     sysbios.aem4f : BIOS.obj (.text:ti_sysbios_family_arm_m3_Hwi_excBusFault__I)
                  000072bc    00000170     drivers_tivaware.aem4f : PWMTiva.oem4f (.text:PWMTiva_open)
                  0000742c    00000004     grlib.lib : widget.obj (.text:WidgetDefaultMsgProc)
                  00007430    00000164     sysbios.aem4f : BIOS.obj (.text:ti_sysbios_family_arm_m3_Hwi_excUsageFault__I)
                  00007594    0000015c     sensors.obj (.text:accelSensorFilterFxn)
                  000076f0    00000150     drivers_tivaware.aem4f : GPIOTiva.oem4f (.text:GPIO_setConfig)
                  00007840    0000014c     sensors.obj (.text:readAccFxn)
                  0000798c    00000004     rtsv7M4_T_le_v4SPD16_eabi.lib : exit.c.obj (.text:abort:abort)
                  00007990    00000148     sysbios.aem4f : BIOS.obj (.text:ti_sysbios_family_arm_m3_Hwi_excMemFault__I)
                  00007ad8    0000013c     rtsv7M4_T_le_v4SPD16_eabi.lib : _printfi.c.obj (.text:_pconv_e)
                  00007c14    00000004     empty_pem4f.oem4f (.text:ti_sysbios_BIOS_RtsGateProxy_enter__E)
                  00007c18    0000013c     sysbios.aem4f : BIOS.obj (.text:ti_sysbios_heaps_HeapMem_Instance_init__E)
                  00007d54    00000136     rtsv7M4_T_le_v4SPD16_eabi.lib : fd_div_t2.asm.obj (.text)
                  00007e8a    00000006     driverlib.lib : gpio.obj (.text:GPIOIntClear)
                  00007e90    00000134     sysbios.aem4f : BIOS.obj (.text:ti_sysbios_knl_Task_setPri__E)
                  00007fc4    00000130     GlobalDraw.obj (.text:BannerInit)
                  000080f4    00000130     driverlib.lib : gpio.obj (.text:GPIOPadConfigSet)
                  00008224    00000124     rtsv7M4_T_le_v4SPD16_eabi.lib : _printfi.c.obj (.text:fcvt)
                  00008348    00000118     ti.targets.arm.rtsarm.aem4f : Error.oem4f (.text:xdc_runtime_Error_policyDefault__E)
                  00008460    00000114     drivers_tivaware.aem4f : PWMTimerTiva.oem4f (.text:PWMTimerTiva_open)
                  00008574    00000110     rtsv7M4_T_le_v4SPD16_eabi.lib : s_scalbn.c.obj (.text:scalbn)
                  00008684    0000010c     Kentec320x240x16_ssd2119_spi.obj (.text:Kentec320x240x16_SSD2119RectFill)
                  00008790    0000010c     touch.obj (.text:TouchScreenInit)
                  0000889c    00000004     empty_pem4f.oem4f (.text:ti_sysbios_BIOS_RtsGateProxy_leave__E)
                  000088a0    00000108     sysbios.aem4f : BIOS.obj (.text:ti_sysbios_family_arm_lm4_Timer_start__E)
                  000089a8    00000108                   : BIOS.obj (.text:ti_sysbios_knl_Clock_Instance_init__E)
                  00008ab0    00000106     grlib.lib : line.obj (.text:GrLineDraw)
                  00008bb6    00000002     --HOLE-- [fill = 0]
                  00008bb8    00000104     sysbios.aem4f : BIOS.obj (.text:ti_sysbios_knl_Event_post__E)
                  00008cbc    00000100     ti.targets.arm.rtsarm.aem4f : Core-mem.oem4f (.text:xdc_runtime_Core_createObject__I)
                  00008dbc    000000fc     rtsv7M4_T_le_v4SPD16_eabi.lib : fd_mul_t2.asm.obj (.text)
                  00008eb8    000000f8                                   : s_floor.c.obj (.text:floor)
                  00008fb0    000000f8     ti.targets.arm.rtsarm.aem4f : Startup.oem4f (.text:xdc_runtime_Startup_startMods__I)
                  000090a8    000000f8     empty_pem4f.oem4f (.text:xdc_runtime_System_printfExtend__I)
                  000091a0    000000f4     Motor.obj (.text:MotorMain)
                  00009294    000000f4     GlobalDraw.obj (.text:graphSelectPage)
                  00009388    000000f4     sysbios.aem4f : m3_Hwi_asm.obj (.text:ti_sysbios_family_arm_m3_Hwi_dispatch__I)
                  0000947c    000000f2     grlib.lib : pushbutton.obj (.text:RectangularButtonClick)
                  0000956e    000000f0     drivers_tivaware.aem4f : PWMTiva.oem4f (.text:PWMTiva_setDuty)
                  0000965e    000000f0     bmi160.obj (.text:bmi160_init)
                  0000974e    00000002     --HOLE-- [fill = 0]
                  00009750    000000ec     sysbios.aem4f : BIOS.obj (.text:ti_sysbios_knl_Semaphore_post__E)
                  0000983c    000000e8     grlib.lib : widget.obj (.text:WidgetMessageQueueAdd)
                  00009924    000000e0     drivers_tivaware.aem4f : I2CTiva.oem4f (.text:I2CTiva_open)
                  00009a04    000000d8     GlobalDraw.obj (.text:MainPage)
                  00009adc    000000d6     drivers_tivaware.aem4f : I2CTiva.oem4f (.text:I2CTiva_hwiFxn)
                  00009bb2    000000d6     grlib.lib : slider.obj (.text:SliderClick)
                  00009c88    000000d4     sysbios.aem4f : BIOS.obj (.text:ti_sysbios_knl_Swi_Instance_init__E)
                  00009d5c    000000cc     ti.targets.arm.rtsarm.aem4f : Core-smem.oem4f (.text:xdc_runtime_Core_constructObject__I)
                  00009e28    000000c0     grlib.lib : string.obj (.text:GrDefaultStringRenderer)
                  00009ee8    000000bc     sysbios.aem4f : BIOS.obj (.text:ti_sysbios_family_arm_m3_Hwi_excDebugMon__I)
                  00009fa4    00000004                   : BIOS.obj (.text:ti_sysbios_family_arm_lm4_Timer_masterEnable__I)
                  00009fa8    000000bc                   : BIOS.obj (.text:ti_sysbios_family_arm_m3_Hwi_excHardFault__I)
                  0000a064    000000b8     EK_TM4C1294XL.obj (.text:EK_TM4C1294XL_initGeneral)
                  0000a11c    000000b8     grlib.lib : line.obj (.text:GrLineClip)
                  0000a1d4    000000b8     Kentec320x240x16_ssd2119_spi.obj (.text:InitSPILCDInterface)
                  0000a28c    000000b8     drivers_tivaware.aem4f : PWMTimerTiva.oem4f (.text:PWMTimerTiva_setDuty)
                  0000a344    000000b4     grlib.lib : widget.obj (.text:WidgetMessageSendPostOrder)
                  0000a3f8    000000b4     sysbios.aem4f : BIOS.obj (.text:ti_sysbios_gates_GateMutex_enter__E)
                  0000a4ac    00000004     empty_pem4f.oem4f (.text:ti_sysbios_family_arm_m3_Hwi_delete)
                  0000a4b0    000000b4     sysbios.aem4f : BIOS.obj (.text:ti_sysbios_knl_Task_checkStacks__E)
                  0000a564    000000b1     rtsv7M4_T_le_v4SPD16_eabi.lib : _printfi.c.obj (.text:_ltostr)
                  0000a615    00000001     --HOLE-- [fill = 0]
                  0000a616    000000b0     grlib.lib : slider.obj (.text:SliderValueToPosition)
                  0000a6c6    000000ac     drivers_tivaware.aem4f : UARTTiva.oem4f (.text:readTaskBlocking)
                  0000a772    00000006     driverlib.lib : gpio.obj (.text:GPIOPinRead)
                  0000a778    000000ac     sysbios.aem4f : BIOS.obj (.text:ti_sysbios_family_arm_lm4_Timer_enableTiva__I)
                  0000a824    00000004     empty_pem4f.oem4f (.text:ti_sysbios_family_arm_m3_Hwi_destruct)
                  0000a828    000000a4     sysbios.aem4f : BIOS.obj (.text:ti_sysbios_knl_Clock_Instance_finalize__E)
                  0000a8cc    000000a0     auto_init.aem4f : auto_init.oem4f (.text)
                  0000a96c    000000a0     ti.targets.arm.rtsarm.aem4f : Text.oem4f (.text:xdc_runtime_Text_putMod__E)
                  0000aa0c    0000009c     EK_TM4C1294XL.obj (.text:EK_TM4C1294XL_initI2C)
                  0000aaa8    0000009c     rtsv7M4_T_le_v4SPD16_eabi.lib : memcpy_t2.asm.obj (.text)
                  0000ab44    00000004     empty_pem4f.oem4f (.text:ti_sysbios_family_arm_m3_TaskSupport_Module__startupDone__S)
                  0000ab48    0000009c     sysbios.aem4f : BIOS.obj (.text:ti_sysbios_knl_Semaphore_Instance_init__E)
                  0000abe4    0000009a     ti.targets.arm.rtsarm.aem4f : Text.oem4f (.text:xdc_runtime_Text_putSite__E)
                  0000ac7e    00000098     drivers_tivaware.aem4f : UARTTiva.oem4f (.text:UARTTiva_readPolling)
                  0000ad16    00000002     --HOLE-- [fill = 0]
                  0000ad18    00000098     Boot.aem4f : Boot.oem4f (.text:ti_catalog_arm_cortexm4_tiva_ce_Boot_sysCtlClockFreqSet__E)
                  0000adb0    00000096     rtsv7M4_T_le_v4SPD16_eabi.lib : ull_div_t2.asm.obj (.text)
                  0000ae46    00000094     drivers_tivaware.aem4f : UARTTiva.oem4f (.text:UARTTiva_write)
                  0000aeda    00000006     driverlib.lib : gpio.obj (.text:GPIOPinWrite)
                  0000aee0    00000094     sysbios.aem4f : BIOS.obj (.text:ti_sysbios_family_arm_m3_Hwi_Instance_init__E)
                  0000af74    00000004     empty_pem4f.oem4f (.text:ti_sysbios_hal_Timer_TimerProxy_delete)
                  0000af78    00000094     sysbios.aem4f : BIOS.obj (.text:ti_sysbios_family_arm_m3_Hwi_initNVIC__E)
                  0000b00c    00000004     empty_pem4f.oem4f (.text:ti_sysbios_heaps_HeapMem_Module_GateProxy_enter__E)
                  0000b010    00000094     sysbios.aem4f : BIOS.obj (.text:ti_sysbios_knl_Task_postInit__I)
                  0000b0a4    0000008c     drivers_tivaware.aem4f : GPIOTiva.oem4f (.text:GPIO_init)
                  0000b130    0000008c                            : UARTTiva.oem4f (.text:UARTTiva_control)
                  0000b1bc    0000008c     sysbios.aem4f : m3_TaskSupport_asm.obj (.text:ti_sysbios_family_arm_m3_TaskSupport_buildTaskStack)
                  0000b248    0000008c                   : BIOS.obj (.text:ti_sysbios_hal_SecondsClock_Module_startup__E)
                  0000b2d4    0000008a     drivers_tivaware.aem4f : UARTTiva.oem4f (.text:readIsrTextBlocking)
                  0000b35e    00000002     --HOLE-- [fill = 0]
                  0000b360    00000088                            : PWMTiva.oem4f (.text:PWMTiva_control)
                  0000b3e8    00000086     grlib.lib : rectangle.obj (.text:GrRectFill)
                  0000b46e    00000086     rtsv7M4_T_le_v4SPD16_eabi.lib : fd_cmp_t2.asm.obj (.text:__aeabi_cdcmple)
                  0000b4f4    00000086                                   : fd_cmp_t2.asm.obj (.text:__aeabi_cdrcmple)
                  0000b57a    00000002     --HOLE-- [fill = 0]
                  0000b57c    00000084     GlobalDraw.obj (.text:GraphPageAccel)
                  0000b600    00000084     GlobalDraw.obj (.text:GraphPageLight)
                  0000b684    00000004     empty_pem4f.oem4f (.text:ti_sysbios_heaps_HeapMem_Module_GateProxy_leave__E)
                  0000b688    00000084     sysbios.aem4f : BIOS.obj (.text:ti_sysbios_family_arm_m3_Hwi_postInit__I)
                  0000b70c    00000082     opt3001.obj (.text:opt3001_init)
                  0000b78e    00000082     drivers_tivaware.aem4f : UARTTiva.oem4f (.text:readIsrTextCallback)
                  0000b810    00000080     grlib.lib : rectangle.obj (.text:GrRectIntersectGet)
                  0000b890    0000007e     drivers_tivaware.aem4f : I2CTiva.oem4f (.text:I2CTiva_transfer)
                  0000b90e    00000002     --HOLE-- [fill = 0]
                  0000b910    0000007c     sysbios.aem4f : BIOS.obj (.text:ti_sysbios_family_arm_lm4_Timer_disableTiva__I)
                  0000b98c    0000007a     driverlib.lib : adc.obj (.text:ADCSequenceStepConfigure)
                  0000ba06    0000007a     drivers_tivaware.aem4f : UARTTiva.oem4f (.text:readTaskCallback)
                  0000ba80    0000007a     rtsv7M4_T_le_v4SPD16_eabi.lib : memset_t2.asm.obj (.text)
                  0000bafa    00000002     --HOLE-- [fill = 0]
                  0000bafc    00000078     GlobalDraw.obj (.text:UpdateAccelGraph)
                  0000bb74    00000078     GlobalDraw.obj (.text:UpdateLightGraph)
                  0000bbec    00000076     GraphFunctions.obj (.text:ArrayUpdate)
                  0000bc62    00000002     --HOLE-- [fill = 0]
                  0000bc64    00000074     GlobalDraw.obj (.text:InitScreen)
                  0000bcd8    00000074     sysbios.aem4f : BIOS.obj (.text:ti_sysbios_knl_Clock_start__E)
                  0000bd4c    00000070     sensors.obj (.text:lightSensorFilterFxn)
                  0000bdbc    00000070     opt3001.obj (.text:opt3001_read)
                  0000be2c    00000004     empty_pem4f.oem4f (.text:ti_sysbios_knl_Clock_TimerProxy_getFreq__E)
                  0000be30    00000070     sysbios.aem4f : BIOS.obj (.text:ti_sysbios_knl_Clock_workFunc__E)
                  0000bea0    00000070                   : BIOS.obj (.text:ti_sysbios_knl_Task_exit__E)
                  0000bf10    0000006e     rtsv7M4_T_le_v4SPD16_eabi.lib : _printfi.c.obj (.text:_mcpy)
                  0000bf7e    00000002     --HOLE-- [fill = 0]
                  0000bf80    0000006d     ti.targets.arm.rtsarm.aem4f : System.oem4f (.text:xdc_runtime_System_formatNum__I)
                  0000bfed    00000003     --HOLE-- [fill = 0]
                  0000bff0    0000006c     GraphFunctions.obj (.text:CalcAvg)
                  0000c05c    0000006c     Motor.obj (.text:HAllF)
                  0000c0c8    0000006c     drivers_tivaware.aem4f : PWMTimerTiva.oem4f (.text:PWMTimerTiva_control)
                  0000c134    0000006c     empty_pem4f.oem4f (.text:ti_sysbios_family_arm_lm4_Timer_Object__create__S)
                  0000c1a0    0000006c     sysbios.aem4f : BIOS.obj (.text:ti_sysbios_gates_GateMutexPri_leave__E)
                  0000c20c    00000004     empty_pem4f.oem4f (.text:ti_sysbios_knl_Clock_TimerProxy_getMaxTicks__E)
                  0000c210    0000006c     sysbios.aem4f : BIOS.obj (.text:ti_sysbios_knl_Swi_restoreHwi__E)
                  0000c27c    0000006c     drivers_tivaware.aem4f : UARTTiva.oem4f (.text:writeData)
                  0000c2e8    0000006c     ti.targets.arm.rtsarm.aem4f : Error.oem4f (.text:xdc_runtime_Error_print__E)
                  0000c354    0000006c                                 : Memory.oem4f (.text:xdc_runtime_Memory_alloc__E)
                  0000c3c0    0000006a     drivers_tivaware.aem4f : PWMTiva.oem4f (.text:PWMTiva_close)
                  0000c42a    00000002     --HOLE-- [fill = 0]
                  0000c42c    00000068     GlobalDraw.obj (.text:BackMainMotorPage)
                  0000c494    00000068     grlib.lib : context.obj (.text:GrContextInit)
                  0000c4fc    00000068               : string.obj (.text:GrStringWidthGet)
                  0000c564    00000068     driverlib.lib : interrupt.obj (.text:IntEnable)
                  0000c5cc    00000068     Kentec320x240x16_ssd2119_spi.obj (.text:Kentec320x240x16_SSD2119LineDrawH)
                  0000c634    00000068     Kentec320x240x16_ssd2119_spi.obj (.text:Kentec320x240x16_SSD2119LineDrawV)
                  0000c69c    00000068     rtsv7M4_T_le_v4SPD16_eabi.lib : copy_decompress_lzss.c.obj (.text:decompress:lzss:__TI_decompress_lzss)
                  0000c704    00000068     opt3001.obj (.text:opt3001_convert)
                  0000c76c    00000066     grlib.lib : context.obj (.text:GrContextClipRegionSet)
                  0000c7d2    00000066               : rectangle.obj (.text:GrRectDraw)
                  0000c838    00000066     ti.targets.arm.rtsarm.aem4f : Core-mem.oem4f (.text:xdc_runtime_Core_deleteObject__I)
                  0000c89e    00000002     --HOLE-- [fill = 0]
                  0000c8a0    00000064     drivers_tivaware.aem4f : GPIOTiva.oem4f (.text:GPIO_hwiIntFxn)
                  0000c904    00000064     grlib.lib : widget.obj (.text:WidgetMessageQueueProcess)
                  0000c968    00000064     rtsv7M4_T_le_v4SPD16_eabi.lib : s_frexp.c.obj (.text:frexp)
                  0000c9cc    00000064     GraphFunctions.obj (.text:min_element)
                  0000ca30    00000064     sysbios.aem4f : BIOS.obj (.text:ti_sysbios_family_arm_lm4_Timer_Module_startup__E)
                  0000ca94    00000064     empty_pem4f.oem4f (.text:ti_sysbios_family_arm_m3_Hwi_create)
                  0000caf8    00000064     sysbios.aem4f : BIOS.obj (.text:ti_sysbios_family_arm_m3_Hwi_dispatchC__I)
                  0000cb5c    00000064     empty_pem4f.oem4f (.text:ti_sysbios_hal_Timer_create)
                  0000cbc0    00000064     Clock.obj (.text:timer1sec)
                  0000cc24    00000062     drivers_tivaware.aem4f : I2CTiva.oem4f (.text:I2CTiva_primeTransfer)
                  0000cc86    00000002     --HOLE-- [fill = 0]
                  0000cc88    00000060     driverlib.lib : timer.obj (.text:TimerConfigure)
                  0000cce8    00000060     Kentec320x240x16_ssd2119_spi.obj (.text:WriteDataSPI)
                  0000cd48    00000060     sysbios.aem4f : BIOS.obj (.text:ti_sysbios_knl_Task_schedule__I)
                  0000cda8    0000005e     grlib.lib : widget.obj (.text:WidgetMessageSendPreOrder)
                  0000ce06    0000005e     bmi160.obj (.text:bmi160_getAccel)
                  0000ce64    0000005e     drivers_tivaware.aem4f : UARTTiva.oem4f (.text:readIsrBinaryBlocking)
                  0000cec2    00000002     --HOLE-- [fill = 0]
                  0000cec4    0000005c     Kentec320x240x16_ssd2119_spi.obj (.text:WriteCommandSPI)
                  0000cf20    0000005c     GraphFunctions.obj (.text:max_element)
                  0000cf7c    0000005c     empty_pem4f.oem4f (.text:ti_sysbios_knl_Swi_create)
                  0000cfd8    0000005c     sysbios.aem4f : BIOS.obj (.text:ti_sysbios_knl_Swi_run__I)
                  0000d034    00000004     empty_pem4f.oem4f (.text:ti_sysbios_knl_Clock_TimerProxy_getPeriod__E)
                  0000d038    0000005c     sysbios.aem4f : BIOS.obj (.text:ti_sysbios_knl_Swi_schedule__I)
                  0000d094    00000004     empty_pem4f.oem4f (.text:ti_sysbios_knl_Clock_destruct)
                  0000d098    0000005c     sysbios.aem4f : BIOS.obj (.text:ti_sysbios_knl_Task_Module_startup__E)
                  0000d0f4    00000004     empty_pem4f.oem4f (.text:ti_sysbios_knl_Queue_destruct)
                  0000d0f8    0000005c     sysbios.aem4f : BIOS.obj (.text:ti_sysbios_knl_Task_startCore__E)
                  0000d154    0000005c     i2cDriver.obj (.text:writeI2C)
                  0000d1b0    0000005b     ti.targets.arm.rtsarm.aem4f : Text.oem4f (.text:xdc_runtime_Text_putLab__E)
                  0000d20b    00000001     --HOLE-- [fill = 0]
                  0000d20c    0000005a     grlib.lib : string.obj (.text:FontWideGlyphDataGet)
                  0000d266    00000002     --HOLE-- [fill = 0]
                  0000d268    00000058     boot.aem4f : boot.oem4f (.text)
                  0000d2c0    00000058     rtsv7M4_T_le_v4SPD16_eabi.lib : hostwrite.c.obj (.text:HOSTwrite)
                  0000d318    00000058     grlib.lib : slider.obj (.text:SliderPositionToValue)
                  0000d370    00000058     driverlib.lib : timer.obj (.text:TimerControlTrigger)
                  0000d3c8    00000058     sysbios.aem4f : BIOS.obj (.text:ti_sysbios_family_arm_lm4_Timer_Instance_finalize__E)
                  0000d420    00000058     empty_pem4f.oem4f (.text:ti_sysbios_family_arm_m3_Hwi_construct)
                  0000d478    00000058     sysbios.aem4f : m3_Hwi_asm_switch.obj (.text:ti_sysbios_family_arm_m3_Hwi_initStacks__E)
                  0000d4d0    00000057     Motor.obj (.text:MotorInit)
                  0000d527    00000001     --HOLE-- [fill = 0]
                  0000d528    00000056     driverlib.lib : gpio.obj (.text:GPIOIntTypeSet)
                  0000d57e    00000056     rtsv7M4_T_le_v4SPD16_eabi.lib : _printfi.c.obj (.text:_pconv_f)
                  0000d5d4    00000054                                   : _ltoa.c.obj (.text:__TI_ltoa)
                  0000d628    00000054     sensors.obj (.text:i2c_Open)
                  0000d67c    00000054     drivers_tivaware.aem4f : UARTTiva.oem4f (.text:readIsrBinaryCallback)
                  0000d6d0    00000054     sysbios.aem4f : BIOS.obj (.text:ti_sysbios_family_arm_lm4_Timer_initDevice__I)
                  0000d724    00000004     empty_pem4f.oem4f (.text:ti_sysbios_knl_Semaphore_destruct)
                  0000d728    00000054     sysbios.aem4f : BIOS.obj (.text:ti_sysbios_knl_Swi_Instance_finalize__E)
                  0000d77c    00000054     empty_pem4f.oem4f (.text:ti_sysbios_knl_Task_construct)
                  0000d7d0    00000054     ti.targets.arm.rtsarm.aem4f : Assert.oem4f (.text:xdc_runtime_Assert_raise__I)
                  0000d824    00000052     rtsv7M4_T_le_v4SPD16_eabi.lib : _printfi.c.obj (.text:_ecpy)
                  0000d876    00000002     --HOLE-- [fill = 0]
                  0000d878    00000050     drivers_tivaware.aem4f : GPIOTiva.oem4f (.text:GPIO_setCallback)
                  0000d8c8    00000050                            : GPIOTiva.oem4f (.text:GPIO_write)
                  0000d918    00000050                            : UARTTiva.oem4f (.text:UARTTiva_writeCancel)
                  0000d968    00000050     Boot.aem4f : Boot_sysctl.oem4f (.text:_SysCtlFrequencyGet)
                  0000d9b8    00000050     sysbios.aem4f : BIOS.obj (.text:ti_sysbios_family_arm_m3_Hwi_Module_startup__E)
                  0000da08    00000050     ti.targets.arm.rtsarm.aem4f : Startup.oem4f (.text:xdc_runtime_Startup_exec__E)
                  0000da58    00000050                                 : Text.oem4f (.text:xdc_runtime_Text_visitRope2__I)
                  0000daa8    0000004c     drivers_tivaware.aem4f : UARTTiva.oem4f (.text:UARTTiva_close)
                  0000daf4    0000004c     grlib.lib : widget.obj (.text:WidgetRemove)
                  0000db40    0000004c     rtsv7M4_T_le_v4SPD16_eabi.lib : atoi.c.obj (.text:atoi)
                  0000db8c    0000004c                                   : cpy_tbl.c.obj (.text:copy_in)
                  0000dbd8    0000004c     i2cDriver.obj (.text:readI2C)
                  0000dc24    00000004     ti.targets.arm.rtsarm.aem4f : Error.oem4f (.text:xdc_runtime_Error_getSite__E)
                  0000dc28    0000004c     sysbios.aem4f : BIOS.obj (.text:ti_sysbios_family_arm_lm4_Timer_setAvailMask__E)
                  0000dc74    00000004     empty_pem4f.oem4f (.text:xdc_runtime_System_Module_GateProxy_enter__E)
                  0000dc78    0000004c     sysbios.aem4f : BIOS.obj (.text:ti_sysbios_heaps_HeapMem_getStats__E)
                  0000dcc4    00000004     empty_pem4f.oem4f (.text:xdc_runtime_System_Module_GateProxy_leave__E)
                  0000dcc8    0000004c     sysbios.aem4f : BIOS.obj (.text:ti_sysbios_knl_Swi_runLoop__I)
                  0000dd14    00000004     ti.targets.arm.rtsarm.aem4f : System.oem4f (.text:xdc_runtime_System_aprintf_va__F)
                  0000dd18    0000004c     sysbios.aem4f : BIOS.obj (.text:ti_sysbios_knl_Task_allBlockedFunction__I)
                  0000dd64    00000004     ti.targets.arm.rtsarm.aem4f : System.oem4f (.text:xdc_runtime_System_printf_va__F)
                  0000dd68    0000004c     sysbios.aem4f : BIOS.obj (.text:ti_sysbios_knl_Task_block__E)
                  0000ddb4    0000004a     drivers_tivaware.aem4f : PWMTimerTiva.oem4f (.text:PWMTimerTiva_close)
                  0000ddfe    0000004a     grlib.lib : string.obj (.text:UpdateContextCharMapping)
                  0000de48    00000048     driverlib.lib : gpio.obj (.text:GPIOPinConfigure)
                  0000de90    00000048                   : i2c.obj (.text:I2CMasterInitExpClk)
                  0000ded8    00000048     rtsv7M4_T_le_v4SPD16_eabi.lib : fd_toi_t2.asm.obj (.text)
                  0000df20    00000048     sysbios.aem4f : BIOS.obj (.text:ti_sysbios_family_arm_lm4_Timer_enableTimers__I)
                  0000df68    00000048                   : BIOS.obj (.text:ti_sysbios_family_arm_m3_Hwi_disableInterrupt__E)
                  0000dfb0    00000048                   : BIOS.obj (.text:ti_sysbios_family_arm_m3_Hwi_enableInterrupt__E)
                  0000dff8    00000048                   : BIOS.obj (.text:ti_sysbios_family_arm_m3_Hwi_excReserved__I)
                  0000e040    00000048                   : BIOS.obj (.text:ti_sysbios_hal_SecondsClock_increment__I)
                  0000e088    00000048                   : BIOS.obj (.text:ti_sysbios_knl_Mailbox_Module_startup__E)
                  0000e0d0    00000046     grlib.lib : line.obj (.text:GrLineDrawH)
                  0000e116    00000046               : line.obj (.text:GrLineDrawV)
                  0000e15c    00000046     Kentec320x240x16_ssd2119_spi.obj (.text:Kentec320x240x16_SSD2119PixelDraw)
                  0000e1a2    00000046     drivers_tivaware.aem4f : RingBuf.oem4f (.text:RingBuf_put)
                  0000e1e8    00000046     UARTLocal.obj (.text:initUART)
                  0000e22e    00000046     ti.targets.arm.rtsarm.aem4f : Core-params.oem4f (.text:xdc_runtime_Core_assignParams__I)
                  0000e274    00000044     Motor.obj (.text:GetCurrentSpeed)
                  0000e2b8    00000044     sysbios.aem4f : BIOS.obj (.text:ti_sysbios_family_arm_lm4_Timer_isrStub__E)
                  0000e2fc    00000004     --HOLE-- [fill = 0]
                  0000e300    00000044                   : BIOS.obj (.text:ti_sysbios_family_arm_m3_Hwi_getStackInfo__E)
                  0000e344    00000004     --HOLE-- [fill = 0]
                  0000e348    00000044                   : BIOS.obj (.text:ti_sysbios_knl_Mailbox_postInit__I)
                  0000e38c    00000004     --HOLE-- [fill = 0]
                  0000e390    00000044                   : BIOS.obj (.text:ti_sysbios_knl_Swi_post__E)
                  0000e3d4    00000044     ti.targets.arm.rtsarm.aem4f : Error.oem4f (.text:xdc_runtime_Error_setX__E)
                  0000e418    00000044                                 : SysMin.oem4f (.text:xdc_runtime_SysMin_flush__E)
                  0000e45c    00000044                                 : Text.oem4f (.text:xdc_runtime_Text_xprintf__I)
                  0000e4a0    00000042     driverlib.lib : uart.obj (.text:UARTConfigSetExpClk)
                  0000e4e2    00000042     drivers_tivaware.aem4f : UARTTiva.oem4f (.text:UARTTiva_hwiIntFxn)
                  0000e524    00000042                            : UARTTiva.oem4f (.text:UARTTiva_writePolling)
                  0000e566    00000002     --HOLE-- [fill = 0]
                  0000e568    00000040     GraphData.obj (.text:InitsingleBuffer)
                  0000e5a8    00000040     drivers_tivaware.aem4f : RingBuf.oem4f (.text:RingBuf_get)
                  0000e5e8    00000040                            : UARTTiva.oem4f (.text:UARTTiva_read)
                  0000e628    00000040     rtsv7M4_T_le_v4SPD16_eabi.lib : u_divt2.asm.obj (.text)
                  0000e668    00000040                                   : sprintf.c.obj (.text:sprintf)
                  0000e6a8    00000040     sysbios.aem4f : BIOS.obj (.text:ti_sysbios_family_arm_lm4_Timer_startup__E)
                  0000e6e8    00000040                   : BIOS.obj (.text:ti_sysbios_hal_SecondsClock_getTime__E)
                  0000e728    0000003e     driverlib.lib : adc.obj (.text:ADCSequenceConfigure)
                  0000e766    0000003e     rtsv7M4_T_le_v4SPD16_eabi.lib : _printfi.c.obj (.text:_fcpy)
                  0000e7a4    0000003c     GraphFunctions.obj (.text:CalcNoRemainder)
                  0000e7e0    0000003c     driverlib.lib : ssi.obj (.text:SSIConfigSetExpClk)
                  0000e81c    0000003c     Estop.obj (.text:checkEstop)
                  0000e858    0000003c     sysbios.aem4f : BIOS.obj (.text:ti_sysbios_family_arm_m3_Hwi_excSvCall__I)
                  0000e894    00000004     --HOLE-- [fill = 0]
                  0000e898    0000003c                   : BIOS.obj (.text:ti_sysbios_heaps_HeapMem_init__I)
                  0000e8d4    00000004     --HOLE-- [fill = 0]
                  0000e8d8    0000003c                   : BIOS.obj (.text:ti_sysbios_knl_Swi_restore__E)
                  0000e914    0000003a     grlib.lib : string.obj (.text:FontGlyphDataGet)
                  0000e94e    0000003a     drivers_tivaware.aem4f : I2CTiva.oem4f (.text:I2CTiva_completeTransfer)
                  0000e988    00000038     grlib.lib : rectangle.obj (.text:GrRectOverlapCheck)
                  0000e9c0    00000038     drivers_tivaware.aem4f : I2C.oem4f (.text:I2C_init)
                  0000e9f8    00000038                            : PWM.oem4f (.text:PWM_init)
                  0000ea30    00000038     GlobalDraw.obj (.text:RemoveGraphSelect)
                  0000ea68    00000038     driverlib.lib : sysctl.obj (.text:SysCtlPeripheralReady)
                  0000eaa0    00000038     drivers_tivaware.aem4f : UART.oem4f (.text:UART_init)
                  0000ead8    00000038     rtsv7M4_T_le_v4SPD16_eabi.lib : trgmsg.c.obj (.text:__TI_writemsg)
                  0000eb10    00000038     sysbios.aem4f : BIOS.obj (.text:ti_sysbios_family_arm_m3_Hwi_excNoIsr__I)
                  0000eb48    00000038                   : BIOS.obj (.text:ti_sysbios_knl_Task_processVitalTaskFlag__I)
                  0000eb80    00000038     ti.targets.arm.rtsarm.aem4f : SysMin.oem4f (.text:xdc_runtime_SysMin_putch__E)
                  0000ebb8    00000038                                 : System.oem4f (.text:xdc_runtime_System_atexit__E)
                  0000ebf0    00000036     grlib.lib : line.obj (.text:GrClipCodeGet)
                  0000ec26    00000036     drivers_tivaware.aem4f : I2CTiva.oem4f (.text:I2CTiva_close)
                  0000ec5c    00000036                            : UARTTiva.oem4f (.text:UARTTiva_readCancel)
                  0000ec92    00000002     --HOLE-- [fill = 0]
                  0000ec94    00000034     driverlib.lib : sysctl.obj (.text:SysCtlPeripheralEnable)
                  0000ecc8    00000034     rtsv7M4_T_le_v4SPD16_eabi.lib : trgmsg.c.obj (.text:__TI_readmsg)
                  0000ecfc    00000034     bmi160.obj (.text:bmi160_readConvert)
                  0000ed30    00000034     sysbios.aem4f : BIOS.obj (.text:ti_sysbios_family_arm_lm4_Timer_setPeriodMicroSecs__E)
                  0000ed64    00000004     --HOLE-- [fill = 0]
                  0000ed68    00000034                   : BIOS.obj (.text:ti_sysbios_family_arm_m3_Hwi_Instance_finalize__E)
                  0000ed9c    00000004     --HOLE-- [fill = 0]
                  0000eda0    00000034                   : BIOS.obj (.text:ti_sysbios_family_arm_m3_Hwi_excNmi__I)
                  0000edd4    00000004     --HOLE-- [fill = 0]
                  0000edd8    00000034                   : BIOS.obj (.text:ti_sysbios_hal_Hwi_checkStack)
                  0000ee0c    00000034     empty_pem4f.oem4f (.text:ti_sysbios_knl_Clock_construct)
                  0000ee40    00000034     ti.targets.arm.rtsarm.aem4f : Core-label.oem4f (.text:xdc_runtime_Core_assignLabel__I)
                  0000ee74    00000033                                 : Text.oem4f (.text:xdc_runtime_Text_printVisFxn__I)
                  0000eea7    00000001     --HOLE-- [fill = 0]
                  0000eea8    00000032     sysbios.aem4f : BIOS.obj (.text:ti_sysbios_hal_Hwi_initStack)
                  0000eeda    00000002     --HOLE-- [fill = 0]
                  0000eedc    00000030     drivers_tivaware.aem4f : GPIOTiva.oem4f (.text:GPIO_enableInt)
                  0000ef0c    00000030                            : GPIOTiva.oem4f (.text:GPIO_read)
                  0000ef3c    00000030                            : I2C.oem4f (.text:I2C_open)
                  0000ef6c    00000030                            : PWMTiva.oem4f (.text:PWMTiva_init)
                  0000ef9c    00000030                            : PWM.oem4f (.text:PWM_open)
                  0000efcc    00000030                            : UART.oem4f (.text:UART_open)
                  0000effc    00000030     empty_pem4f.oem4f (.text:ti_sysbios_BIOS_atExitFunc__I)
                  0000f02c    00000004     --HOLE-- [fill = 0]
                  0000f030    00000030     sysbios.aem4f : BIOS.obj (.text:ti_sysbios_family_arm_lm4_Timer_stop__E)
                  0000f060    00000030                   : BIOS.obj (.text:ti_sysbios_family_arm_m3_TaskSupport_start__E)
                  0000f090    00000030     empty_pem4f.oem4f (.text:ti_sysbios_gates_GateHwi_Object__create__S)
                  0000f0c0    00000030     empty_pem4f.oem4f (.text:ti_sysbios_gates_GateHwi_create)
                  0000f0f0    00000030     empty_pem4f.oem4f (.text:ti_sysbios_gates_GateMutexPri_Object__create__S)
                  0000f120    00000030     empty_pem4f.oem4f (.text:ti_sysbios_gates_GateMutexPri_create)
                  0000f150    00000030     empty_pem4f.oem4f (.text:ti_sysbios_gates_GateMutex_Object__create__S)
                  0000f180    00000030     empty_pem4f.oem4f (.text:ti_sysbios_heaps_HeapMem_Object__create__S)
                  0000f1b0    00000030     sysbios.aem4f : BIOS.obj (.text:ti_sysbios_knl_Event_pendTimeout__I)
                  0000f1e0    00000030     empty_pem4f.oem4f (.text:ti_sysbios_knl_Semaphore_construct)
                  0000f210    00000030     sysbios.aem4f : BIOS.obj (.text:ti_sysbios_knl_Semaphore_pendTimeout__I)
                  0000f240    00000030                   : BIOS.obj (.text:ti_sysbios_knl_Task_unblockI__E)
                  0000f270    00000030     ti.targets.arm.rtsarm.aem4f : SysMin.oem4f (.text:xdc_runtime_SysMin_abort__E)
                  0000f2a0    00000030                                 : System.oem4f (.text:xdc_runtime_System_processAtExit__E)
                  0000f2d0    0000002e     grlib.lib : string.obj (.text:GrStringNextCharGet)
                  0000f2fe    0000002e     rtsv7M4_T_le_v4SPD16_eabi.lib : i_tofd_t2.asm.obj (.text)
                  0000f32c    0000002c     EK_TM4C1294XL.obj (.text:EK_TM4C1294XL_initUART)
                  0000f358    0000002c     grlib.lib : string.obj (.text:GrFontBaselineGet)
                  0000f384    0000002c               : string.obj (.text:GrFontHeightGet)
                  0000f3b0    0000002c               : pushbutton.obj (.text:RectangularButtonMsgProc)
                  0000f3dc    0000002c               : slider.obj (.text:SliderMsgProc)
                  0000f408    0000002c               : widget.obj (.text:WidgetIsInTree)
                  0000f434    0000002c     Motor.obj (.text:clk0Fxn)
                  0000f460    0000002c     GlobalDraw.obj (.text:removeSensorPage)
                  0000f48c    0000002c     empty_pem4f.oem4f (.text:ti_sysbios_knl_Clock_doTick__I)
                  0000f4b8    0000002c     empty_pem4f.oem4f (.text:ti_sysbios_knl_Event_construct)
                  0000f4e4    0000002c     empty_pem4f.oem4f (.text:ti_sysbios_knl_Queue_construct)
                  0000f510    0000002c     sysbios.aem4f : BIOS.obj (.text:ti_sysbios_knl_Task_restore__E)
                  0000f53c    0000002c     ti.targets.arm.rtsarm.aem4f : Text.oem4f (.text:xdc_runtime_Text_cordText__E)
                  0000f568    0000002a     driverlib.lib : gpio.obj (.text:GPIODirModeSet)
                  0000f592    0000002a     bmi160.obj (.text:bmi160_delay)
                  0000f5bc    0000002a     ti.targets.arm.rtsarm.aem4f : System.oem4f (.text:xdc_runtime_System_putchar__I)
                  0000f5e6    00000028     Kentec320x240x16_ssd2119_spi.obj (.text:Kentec320x240x16_SSD2119ColorTranslate)
                  0000f60e    00000002     --HOLE-- [fill = 0]
                  0000f610    00000028     sysbios.aem4f : BIOS.obj (.text:ti_sysbios_hal_Timer_Instance_init__E)
                  0000f638    00000028                   : BIOS.obj (.text:ti_sysbios_knl_Clock_addI__E)
                  0000f660    00000028                   : BIOS.obj (.text:ti_sysbios_knl_Swi_Module_startup__E)
                  0000f688    00000026     grlib.lib : string.obj (.text:GrFontInfoGet)
                  0000f6ae    00000026     sysbios.aem4f : m3_Hwi_asm.obj (.text:ti_sysbios_family_arm_m3_Hwi_pendSV__I)
                  0000f6d4    00000026     ti.targets.arm.rtsarm.aem4f : System.oem4f (.text:xdc_runtime_System_avprintf__E)
                  0000f6fa    00000002     --HOLE-- [fill = 0]
                  0000f6fc    00000024     GlobalDraw.obj (.text:BackGraphSelect)
                  0000f720    00000024     GlobalDraw.obj (.text:BackMainGraph)
                  0000f744    00000024     GlobalDraw.obj (.text:RemoveGraph)
                  0000f768    00000024     GlobalDraw.obj (.text:RemoveMainPage)
                  0000f78c    00000024     GlobalDraw.obj (.text:backMainSensor)
                  0000f7b0    00000024     empty_pem4f.oem4f (.text:ti_sysbios_BIOS_errorRaiseHook__I)
                  0000f7d4    00000024     empty_pem4f.oem4f (.text:ti_sysbios_BIOS_registerRTSLock__I)
                  0000f7f8    00000024     empty_pem4f.oem4f (.text:ti_sysbios_BIOS_removeRTSLock__I)
                  0000f81c    00000024     empty_pem4f.oem4f (.text:ti_sysbios_BIOS_startFunc__I)
                  0000f840    00000024     empty_pem4f.oem4f (.text:ti_sysbios_gates_GateMutexPri_Object__delete__S)
                  0000f864    00000024     empty_pem4f.oem4f (.text:ti_sysbios_gates_GateMutex_Object__delete__S)
                  0000f888    00000024     sysbios.aem4f : BIOS.obj (.text:ti_sysbios_knl_Clock_Module_startup__E)
                  0000f8ac    00000004     --HOLE-- [fill = 0]
                  0000f8b0    00000024                   : BIOS.obj (.text:ti_sysbios_knl_Task_restoreHwi__E)
                  0000f8d4    00000024     ti.targets.arm.rtsarm.aem4f : System.oem4f (.text:xdc_runtime_System_vprintf__E)
                  0000f8f8    00000022     grlib.lib : string.obj (.text:GrFontGlyphDataGet)
                  0000f91a    00000022     driverlib.lib : pwm.obj (.text:PWMGenConfigure)
                  0000f93c    00000022     drivers_tivaware.aem4f : PWMTiva.oem4f (.text:PWMTiva_getPeriodCounts)
                  0000f95e    00000002     --HOLE-- [fill = 0]
                  0000f960    00000022     sysbios.aem4f : BIOS.obj (.text:ti_sysbios_family_arm_lm4_Timer_write__I)
                  0000f982    00000022     empty_pem4f.oem4f (.text:xdc_runtime_SysMin_output__I)
                  0000f9a4    00000020     Boot.aem4f : Boot_sysctl.oem4f (.text:_SysCtlMemTimingGet)
                  0000f9c4    00000020     Estop.obj (.text:initEstop)
                  0000f9e4    00000020     rtsv7M4_T_le_v4SPD16_eabi.lib : u_tofd_t2.asm.obj (.text)
                  0000fa04    00000020     empty_pem4f.oem4f (.text:ti_sysbios_BIOS_rtsLock__I)
                  0000fa24    00000020     empty_pem4f.oem4f (.text:ti_sysbios_family_arm_lm4_Timer_Object__delete__S)
                  0000fa44    00000004     --HOLE-- [fill = 0]
                  0000fa48    00000020     sysbios.aem4f : BIOS.obj (.text:ti_sysbios_family_arm_lm4_Timer_getFreq__E)
                  0000fa68    00000020     empty_pem4f.oem4f (.text:ti_sysbios_family_arm_m3_Hwi_Object__delete__S)
                  0000fa88    00000020     sysbios.aem4f : m3_Hwi_asm.obj (.text:ti_sysbios_family_arm_m3_Hwi_excHandlerAsm__I)
                  0000faa8    00000020                   : BIOS.obj (.text:ti_sysbios_family_arm_m3_Hwi_excHandler__I)
                  0000fac8    00000020     empty_pem4f.oem4f (.text:ti_sysbios_gates_GateHwi_Object__delete__S)
                  0000fae8    00000020     empty_pem4f.oem4f (.text:ti_sysbios_heaps_HeapMem_Object__delete__S)
                  0000fb08    00000020     empty_pem4f.oem4f (.text:ti_sysbios_knl_Clock_Object__destruct__S)
                  0000fb28    00000020     sysbios.aem4f : BIOS.obj (.text:ti_sysbios_knl_Idle_run__E)
                  0000fb48    00000020     empty_pem4f.oem4f (.text:ti_sysbios_knl_Semaphore_Object__destruct__S)
                  0000fb68    00000020     ti.targets.arm.rtsarm.aem4f : Registry.oem4f (.text:xdc_runtime_Registry_findById__E)
                  0000fb88    00000020                                 : SysMin.oem4f (.text:xdc_runtime_SysMin_Module_startup__E)
                  0000fba8    0000001e     grlib.lib : string.obj (.text:GrFontCodepageGet)
                  0000fbc6    0000001e     driverlib.lib : pwm.obj (.text:PWMPulseWidthSet)
                  0000fbe4    0000001e     drivers_tivaware.aem4f : PWMTiva.oem4f (.text:PWMTiva_getPeriodMicroSecs)
                  0000fc02    0000001e     grlib.lib : widget.obj (.text:WidgetAdd)
                  0000fc20    0000001e     sysbios.aem4f : m3_Hwi_asm_switch.obj (.text:ti_sysbios_family_xxx_Hwi_switchAndRunFunc)
                  0000fc3e    0000001e     Clock.obj (.text:updatetime)
                  0000fc5c    0000001c     driverlib.lib : uart.obj (.text:UARTDisable)
                  0000fc78    0000001c     grlib.lib : widget.obj (.text:WidgetPointerMessage)
                  0000fc94    0000001c     drivers_tivaware.aem4f : GPIOTiva.oem4f (.text:getGpioIntIndex)
                  0000fcb0    0000001c     GraphData.obj (.text:initGraphBuffers)
                  0000fccc    0000001c     rtsv7M4_T_le_v4SPD16_eabi.lib : memccpy.c.obj (.text:memccpy)
                  0000fce8    0000001c     empty_pem4f.oem4f (.text:ti_sysbios_family_arm_m3_Hwi_Object__destruct__S)
                  0000fd04    00000004     --HOLE-- [fill = 0]
                  0000fd08    0000001c     sysbios.aem4f : BIOS.obj (.text:ti_sysbios_gates_GateMutexPri_Instance_init__E)
                  0000fd24    00000004     --HOLE-- [fill = 0]
                  0000fd28    0000001c                   : BIOS.obj (.text:ti_sysbios_gates_GateMutex_Instance_init__E)
                  0000fd44    0000001c     empty_pem4f.oem4f (.text:ti_sysbios_hal_Timer_TimerProxy_create)
                  0000fd60    0000001c     empty_pem4f.oem4f (.text:ti_sysbios_knl_Queue_Object__destruct__S)
                  0000fd7c    00000004     --HOLE-- [fill = 0]
                  0000fd80    0000001c     sysbios.aem4f : BIOS.obj (.text:ti_sysbios_knl_Queue_put__E)
                  0000fd9c    00000004     --HOLE-- [fill = 0]
                  0000fda0    0000001c                   : BIOS.obj (.text:ti_sysbios_knl_Task_enter__I)
                  0000fdbc    0000001c     ti.targets.arm.rtsarm.aem4f : Error.oem4f (.text:xdc_runtime_Error_raiseX__E)
                  0000fdd8    0000001c                                 : Memory.oem4f (.text:xdc_runtime_Memory_valloc__E)
                  0000fdf4    0000001c                                 : SysMin.oem4f (.text:xdc_runtime_SysMin_exit__E)
                  0000fe10    0000001c                                 : System.oem4f (.text:xdc_runtime_System_abort__E)
                  0000fe2c    0000001a     rtsv7M4_T_le_v4SPD16_eabi.lib : s_copysign.c.obj (.text:copysign)
                  0000fe46    0000001a     empty_pem4f.oem4f (.text:ti_sysbios_family_arm_m3_Hwi_Handle__label__S)
                  0000fe60    0000001a     empty_pem4f.oem4f (.text:ti_sysbios_gates_GateHwi_Handle__label__S)
                  0000fe7a    0000001a     empty_pem4f.oem4f (.text:ti_sysbios_gates_GateMutexPri_Handle__label__S)
                  0000fe94    0000001a     empty_pem4f.oem4f (.text:ti_sysbios_gates_GateMutex_Handle__label__S)
                  0000feae    0000001a     empty_pem4f.oem4f (.text:ti_sysbios_heaps_HeapMem_Handle__label__S)
                  0000fec8    0000001a     empty_pem4f.oem4f (.text:ti_sysbios_knl_Swi_Handle__label__S)
                  0000fee2    0000001a     empty_pem4f.oem4f (.text:ti_sysbios_knl_Task_Handle__label__S)
                  0000fefc    0000001a     empty_pem4f.oem4f (.text:xdc_runtime_System_aprintf__E)
                  0000ff16    0000001a     empty_pem4f.oem4f (.text:xdc_runtime_System_printf__E)
                  0000ff30    00000018     Estop.obj (.text:EstopPower)
                  0000ff48    00000018     driverlib.lib : gpio.obj (.text:GPIOPinTypeGPIOOutput)
                  0000ff60    00000018                   : timer.obj (.text:TimerControlLevel)
                  0000ff78    00000018     drivers_tivaware.aem4f : UART.oem4f (.text:UART_Params_init)
                  0000ff90    00000018     rtsv7M4_T_le_v4SPD16_eabi.lib : args_main.c.obj (.text:_args_main)
                  0000ffa8    00000018                                   : sprintf.c.obj (.text:_outs)
                  0000ffc0    00000018     empty_pem4f.oem4f (.text:ti_sysbios_BIOS_rtsUnlock__I)
                  0000ffd8    00000018     empty_pem4f.oem4f (.text:ti_sysbios_family_arm_lm4_Timer_Module__startupDone__F)
                  0000fff0    00000018     empty_pem4f.oem4f (.text:ti_sysbios_family_arm_m3_Hwi_Module__startupDone__F)
                  00010008    00000018     sysbios.aem4f : m3_TaskSupport_asm.obj (.text:ti_sysbios_family_arm_m3_TaskSupport_swap__E)
                  00010020    00000018                   : BIOS.obj (.text:ti_sysbios_gates_GateMutex_leave__E)
                  00010038    00000018     empty_pem4f.oem4f (.text:ti_sysbios_knl_Clock_Module__startupDone__F)
                  00010050    00000018     sysbios.aem4f : BIOS.obj (.text:ti_sysbios_knl_Task_sleepTimeout__I)
                  00010068    00000018     ti.targets.arm.rtsarm.aem4f : Error.oem4f (.text:xdc_runtime_Error_check__E)
                  00010080    00000018                                 : System.oem4f (.text:xdc_runtime_System_exit__E)
                  00010098    00000018                                 : Text.oem4f (.text:xdc_runtime_Text_ropeText__E)
                  000100b0    00000016     grlib.lib : string.obj (.text:GrStringDraw)
                  000100c6    00000016     driverlib.lib : i2c.obj (.text:I2CMasterErr)
                  000100dc    00000016     rtsv7M4_T_le_v4SPD16_eabi.lib : strchr.c.obj (.text:strchr)
                  000100f2    00000016     empty_pem4f.oem4f (.text:ti_sysbios_BIOS_exitFunc__I)
                  00010108    00000016     Motor.obj (.text:ti_sysbios_gates_GateHwi_Params_init)
                  0001011e    00000016     GlobalDraw.obj (.text:ti_sysbios_gates_GateMutexPri_Params_init)
                  00010134    00000016     Clock.obj (.text:ti_sysbios_hal_Timer_Params_init)
                  0001014a    00000016     Motor.obj (.text:ti_sysbios_knl_Clock_Params_init)
                  00010160    00000016     Motor.obj (.text:ti_sysbios_knl_Swi_Params_init)
                  00010176    00000016     empty.obj (.text:ti_sysbios_knl_Swi_Params_init)
                  0001018c    00000016     empty.obj (.text:ti_sysbios_knl_Task_Params_init)
                  000101a2    00000014     grlib.lib : canvas.obj (.text:CanvasMsgProc)
                  000101b6    00000002     --HOLE-- [fill = 0]
                  000101b8    00000014     Kentec320x240x16_ssd2119_spi.obj (.text:LED_OFF)
                  000101cc    00000014     Kentec320x240x16_ssd2119_spi.obj (.text:LED_ON)
                  000101e0    00000014     driverlib.lib : pwm.obj (.text:PWMClockSet)
                  000101f4    00000014                   : sysctl.obj (.text:SysCtlPWMClockSet)
                  00010208    00000014                   : timer.obj (.text:TimerDisable)
                  0001021c    00000014     touch.obj (.text:TouchScreenCallbackSet)
                  00010230    00000014     driverlib.lib : uart.obj (.text:UARTEnable)
                  00010244    00000014     grlib.lib : widget.obj (.text:WidgetMutexGet)
                  00010258    00000014     rtsv7M4_T_le_v4SPD16_eabi.lib : strlen.c.obj (.text:strlen)
                  0001026c    00000014     empty_pem4f.oem4f (.text:ti_sysbios_family_arm_m3_Hwi_Object__get__S)
                  00010280    00000014     sysbios.aem4f : BIOS.obj (.text:ti_sysbios_family_arm_m3_Hwi_switchFromBootStack__E)
                  00010294    00000014     empty_pem4f.oem4f (.text:ti_sysbios_heaps_HeapMem_Object__get__S)
                  000102a8    00000014     sysbios.aem4f : BIOS.obj (.text:ti_sysbios_knl_Event_Instance_init__E)
                  000102bc    00000014     empty_pem4f.oem4f (.text:ti_sysbios_knl_Swi_Object__get__S)
                  000102d0    00000012     driverlib.lib : gpio.obj (.text:GPIOPinTypeEthernetLED)
                  000102e2    00000012                   : gpio.obj (.text:GPIOPinTypeGPIOInput)
                  000102f4    00000012                   : gpio.obj (.text:GPIOPinTypeI2C)
                  00010306    00000012                   : gpio.obj (.text:GPIOPinTypeI2CSCL)
                  00010318    00000012                   : gpio.obj (.text:GPIOPinTypePWM)
                  0001032a    00000012                   : gpio.obj (.text:GPIOPinTypeSSI)
                  0001033c    00000012                   : gpio.obj (.text:GPIOPinTypeTimer)
                  0001034e    00000012                   : gpio.obj (.text:GPIOPinTypeUART)
                  00010360    00000012                   : gpio.obj (.text:GPIOPinTypeUSBAnalog)
                  00010372    00000012                   : gpio.obj (.text:GPIOPinTypeUSBDigital)
                  00010384    00000012                   : pwm.obj (.text:PWMGenPeriodGet)
                  00010396    00000012                   : pwm.obj (.text:PWMOutputInvert)
                  000103a8    00000012                   : pwm.obj (.text:PWMOutputState)
                  000103ba    00000012     drivers_tivaware.aem4f : RingBuf.oem4f (.text:RingBuf_construct)
                  000103cc    00000012     driverlib.lib : ssi.obj (.text:SSIDataGetNonBlocking)
                  000103de    00000012                   : timer.obj (.text:TimerLoadSet)
                  000103f0    00000012                   : timer.obj (.text:TimerMatchSet)
                  00010402    00000012                   : timer.obj (.text:TimerPrescaleMatchSet)
                  00010414    00000012                   : timer.obj (.text:TimerPrescaleSet)
                  00010426    00000002     --HOLE-- [fill = 0]
                  00010428    00000012     sysbios.aem4f : BIOS.obj (.text:ti_sysbios_hal_Hwi_Module_startup__E)
                  0001043a    00000006     grlib.lib : string.obj (.text:GrContextFontSet)
                  00010440    00000012     sysbios.aem4f : BIOS.obj (.text:ti_sysbios_hal_Timer_Module_startup__E)
                  00010452    00000012     rtsv7M4_T_le_v4SPD16_eabi.lib : wcslen.c.obj (.text:wcslen)
                  00010464    00000012     empty_pem4f.oem4f (.text:xdc_runtime_Startup_exec__I)
                  00010476    00000002     --HOLE-- [fill = 0]
                  00010478    00000010     empty_pem4f.oem4f (.text:.bootCodeSection:ti_catalog_arm_cortexm4_tiva_ce_Boot_init__I)
                  00010488    00000010     driverlib.lib : adc.obj (.text:ADCIntEnable)
                  00010498    00000010     GlobalDraw.obj (.text:ChangeAccelDown)
                  000104a8    00000010     GlobalDraw.obj (.text:ChangeAccelUp)
                  000104b8    00000010     driverlib.lib : fpu.obj (.text:FPUEnable)
                  000104c8    00000010                   : fpu.obj (.text:FPULazyStackingEnable)
                  000104d8    00000010     drivers_tivaware.aem4f : I2C.oem4f (.text:I2C_Params_init)
                  000104e8    00000010     driverlib.lib : pwm.obj (.text:PWMGenPeriodSet)
                  000104f8    00000010     drivers_tivaware.aem4f : PWM.oem4f (.text:PWM_Params_init)
                  00010508    00000010                            : UARTTiva.oem4f (.text:readBlockingTimeout)
                  00010518    00000010     sysbios.aem4f : BIOS.obj (.text:ti_sysbios_BIOS_getCpuFreq__E)
                  00010528    00000010                   : BIOS.obj (.text:ti_sysbios_BIOS_setThreadType__E)
                  00010538    00000010                   : BIOS.obj (.text:ti_sysbios_BIOS_start__E)
                  00010548    00000010                   : BIOS.obj (.text:ti_sysbios_family_arm_lm4_TimestampProvider_rolloverFunc__E)
                  00010558    00000010                   : m3_TaskSupport_asm.obj (.text:ti_sysbios_family_arm_m3_TaskSupport_glue)
                  00010568    00000010                   : BIOS.obj (.text:ti_sysbios_gates_GateMutexPri_Instance_finalize__E)
                  00010578    00000010                   : BIOS.obj (.text:ti_sysbios_gates_GateMutex_Instance_finalize__E)
                  00010588    00000010     empty_pem4f.oem4f (.text:ti_sysbios_hal_Timer_TimerProxy_Object__create__S)
                  00010598    00000010     empty_pem4f.oem4f (.text:ti_sysbios_knl_Mailbox_Object__get__S)
                  000105a8    00000010     sysbios.aem4f : BIOS.obj (.text:ti_sysbios_knl_Semaphore_Instance_finalize__E)
                  000105b8    00000010                   : BIOS.obj (.text:ti_sysbios_knl_Swi_disable__E)
                  000105c8    00000010     empty_pem4f.oem4f (.text:ti_sysbios_knl_Task_Object__get__S)
                  000105d8    00000010     sysbios.aem4f : BIOS.obj (.text:ti_sysbios_knl_Task_disable__E)
                  000105e8    00000010     driverlib.lib : udma.obj (.text:uDMAEnable)
                  000105f8    00000010     ti.targets.arm.rtsarm.aem4f : Gate.oem4f (.text:xdc_runtime_Gate_leaveSystem__E)
                  00010608    00000010                                 : Memory.oem4f (.text:xdc_runtime_Memory_free__E)
                  00010618    00000010                                 : SysMin.oem4f (.text:xdc_runtime_SysMin_ready__E)
                  00010628    00000010                                 : System.oem4f (.text:xdc_runtime_System_vsnprintf__E)
                  00010638    00000010     empty_pem4f.oem4f (.text:xdc_runtime_Text_visitRope__I)
                  00010648    0000000e     driverlib.lib : adc.obj (.text:ADCSequenceEnable)
                  00010656    0000000e                   : gpio.obj (.text:GPIOIntStatus)
                  00010664    0000000e     grlib.lib : image.obj (.text:GrImageDraw)
                  00010672    0000000e     driverlib.lib : timer.obj (.text:TimerEnable)
                  00010680    0000000e                   : uart.obj (.text:UARTCharGetNonBlocking)
                  0001068e    0000000e                   : uart.obj (.text:UARTCharPutNonBlocking)
                  0001069c    0000000e     rtsv7M4_T_le_v4SPD16_eabi.lib : copy_decompress_none.c.obj (.text:decompress:none:__TI_decompress_none)
                  000106aa    00000006     driverlib.lib : i2c.obj (.text:I2CMasterIntDisable)
                  000106b0    0000000e     sysbios.aem4f : BIOS.obj (.text:ti_sysbios_knl_Idle_loop__E)
                  000106be    00000002     --HOLE-- [fill = 0]
                  000106c0    0000000e                   : BIOS.obj (.text:ti_sysbios_knl_Queue_empty__E)
                  000106ce    0000000c     driverlib.lib : gpio.obj (.text:GPIOIntEnable)
                  000106da    0000000c                   : pwm.obj (.text:PWMGenDisable)
                  000106e6    0000000c                   : pwm.obj (.text:PWMGenEnable)
                  000106f2    0000000c     drivers_tivaware.aem4f : RingBuf.oem4f (.text:RingBuf_peek)
                  000106fe    0000000c     empty.obj (.text:TouchCheckTask)
                  0001070a    0000000c     driverlib.lib : uart.obj (.text:UARTFlowControlSet)
                  00010716    0000000c     drivers_tivaware.aem4f : UARTTiva.oem4f (.text:UARTTiva_init)
                  00010722    00000002     --HOLE-- [fill = 0]
                  00010724    0000000c     rtsv7M4_T_le_v4SPD16_eabi.lib : _lock.c.obj (.text:_register_lock)
                  00010730    0000000c                                   : _lock.c.obj (.text:_register_unlock)
                  0001073c    0000000c     GlobalDraw.obj (.text:btntest)
                  00010748    0000000c     rtsv7M4_T_le_v4SPD16_eabi.lib : copy_zero_init.c.obj (.text:decompress:ZI:__TI_zero_init)
                  00010754    00000004     --HOLE-- [fill = 0]
                  00010758    0000000c     sysbios.aem4f : BIOS.obj (.text:ti_sysbios_family_arm_lm4_Timer_getAvailMask__E)
                  00010764    00000004     --HOLE-- [fill = 0]
                  00010768    0000000c                   : BIOS.obj (.text:ti_sysbios_family_arm_lm4_Timer_getMaxTicks__E)
                  00010774    00000004     --HOLE-- [fill = 0]
                  00010778    0000000c                   : BIOS.obj (.text:ti_sysbios_family_arm_lm4_TimestampProvider_startTimer__E)
                  00010784    0000000c     empty_pem4f.oem4f (.text:ti_sysbios_family_arm_m3_Hwi_Params__init__S)
                  00010790    0000000c     sysbios.aem4f : BIOS.obj (.text:ti_sysbios_family_arm_m3_Hwi_disableFxn__E)
                  0001079c    00000004     --HOLE-- [fill = 0]
                  000107a0    0000000c                   : BIOS.obj (.text:ti_sysbios_family_arm_m3_TaskSupport_checkStack__E)
                  000107ac    00000004     --HOLE-- [fill = 0]
                  000107b0    0000000c                   : BIOS.obj (.text:ti_sysbios_family_arm_m3_TaskSupport_getStackAlignment__E)
                  000107bc    0000000c     empty_pem4f.oem4f (.text:ti_sysbios_gates_GateHwi_Params__init__S)
                  000107c8    0000000c     sysbios.aem4f : BIOS.obj (.text:ti_sysbios_gates_GateHwi_enter__E)
                  000107d4    0000000c     empty_pem4f.oem4f (.text:ti_sysbios_gates_GateMutexPri_Params__init__S)
                  000107e0    0000000c     sysbios.aem4f : BIOS.obj (.text:ti_sysbios_hal_SecondsClock_set__E)
                  000107ec    0000000c     empty_pem4f.oem4f (.text:ti_sysbios_hal_Timer_Params__init__S)
                  000107f8    0000000c     empty_pem4f.oem4f (.text:ti_sysbios_knl_Clock_Params__init__S)
                  00010804    00000004     --HOLE-- [fill = 0]
                  00010808    0000000c     sysbios.aem4f : BIOS.obj (.text:ti_sysbios_knl_Clock_getTicks__E)
                  00010814    0000000c     Estop.obj (.text:ti_sysbios_knl_Event_handle)
                  00010820    0000000c     empty_pem4f.oem4f (.text:ti_sysbios_knl_Queue_Object__get__S)
                  0001082c    0000000c     empty_pem4f.oem4f (.text:ti_sysbios_knl_Semaphore_Params__init__S)
                  00010838    0000000c     empty_pem4f.oem4f (.text:ti_sysbios_knl_Swi_Params__init__S)
                  00010844    0000000c     empty_pem4f.oem4f (.text:ti_sysbios_knl_Task_Params__init__S)
                  00010850    0000000c     driverlib.lib : udma.obj (.text:uDMAControlBaseSet)
                  0001085c    0000000c     ti.targets.arm.rtsarm.aem4f : Error.oem4f (.text:xdc_runtime_Error_init__E)
                  00010868    0000000c                                 : Gate.oem4f (.text:xdc_runtime_Gate_enterSystem__E)
                  00010874    0000000c                                 : Memory.oem4f (.text:xdc_runtime_Memory_calloc__E)
                  00010880    0000000c                                 : Memory.oem4f (.text:xdc_runtime_Memory_getMaxDefaultTypeAlign__E)
                  0001088c    0000000a     driverlib.lib : i2c.obj (.text:I2CMasterDisable)
                  00010896    0000000a                   : i2c.obj (.text:I2CMasterEnable)
                  000108a0    0000000a     drivers_tivaware.aem4f : I2CTiva.oem4f (.text:I2CTiva_init)
                  000108aa    0000000a                            : I2C.oem4f (.text:I2C_transfer)
                  000108b4    0000000a     Kentec320x240x16_ssd2119_spi.obj (.text:Kentec320x240x16_SSD2119Flush)
                  000108be    0000000a     drivers_tivaware.aem4f : PWMTimerTiva.oem4f (.text:PWMTimerTiva_getPeriodCounts)
                  000108c8    0000000a                            : PWM.oem4f (.text:PWM_setDuty)
                  000108d2    0000000a     driverlib.lib : ssi.obj (.text:SSIDataPut)
                  000108dc    0000000a                   : ssi.obj (.text:SSIEnable)
                  000108e6    0000000a                   : uart.obj (.text:UARTCharGet)
                  000108f0    0000000a                   : uart.obj (.text:UARTCharPut)
                  000108fa    0000000a                   : uart.obj (.text:UARTIntDisable)
                  00010904    0000000a                   : uart.obj (.text:UARTIntStatus)
                  0001090e    0000000a     rtsv7M4_T_le_v4SPD16_eabi.lib : sprintf.c.obj (.text:_outc)
                  00010918    0000000a     sysbios.aem4f : BIOS.obj (.text:ti_sysbios_hal_Timer_Instance_finalize__E)
                  00010922    0000000a     empty_pem4f.oem4f (.text:xdc_runtime_IHeap_alloc)
                  0001092c    0000000a     empty_pem4f.oem4f (.text:xdc_runtime_IHeap_free)
                  00010936    00000008     EK_TM4C1294XL.obj (.text:EK_TM4C1294XL_initGPIO)
                  0001093e    00000008     grlib.lib : charmap.obj (.text:GrMapISO8859_1_Unicode)
                  00010946    00000008     driverlib.lib : i2c.obj (.text:I2CMasterIntClear)
                  0001094e    00000008                   : i2c.obj (.text:I2CMasterSlaveAddrSet)
                  00010956    00000008     drivers_tivaware.aem4f : I2CTiva.oem4f (.text:I2CTiva_blockingCallback)
                  0001095e    00000008                            : PWMTimerTiva.oem4f (.text:PWMTimerTiva_init)
                  00010966    00000008     driverlib.lib : ssi.obj (.text:SSIBusy)
                  0001096e    00000008                   : uart.obj (.text:UARTIntEnable)
                  00010976    00000008                   : uart.obj (.text:UARTRxErrorGet)
                  0001097e    00000002     --HOLE-- [fill = 0]
                  00010980    00000008     rtsv7M4_T_le_v4SPD16_eabi.lib : errno.c.obj (.text:__aeabi_errno_addr)
                  00010988    00000008     drivers_tivaware.aem4f : UARTTiva.oem4f (.text:readSemCallback)
                  00010990    00000008     sysbios.aem4f : BIOS.obj (.text:ti_sysbios_family_arm_lm4_Timer_masterDisable__I)
                  00010998    00000008                   : BIOS.obj (.text:ti_sysbios_family_arm_m3_Hwi_doSwiRestore__I)
                  000109a0    00000008                   : BIOS.obj (.text:ti_sysbios_family_arm_m3_Hwi_startup__E)
                  000109a8    00000008     drivers_tivaware.aem4f : UARTTiva.oem4f (.text:writeSemCallback)
                  000109b0    00000006     driverlib.lib : i2c.obj (.text:I2CMasterIntEnable)
                  000109b6    00000006     drivers_tivaware.aem4f : I2CTiva.oem4f (.text:I2CTiva_control)
                  000109bc    00000006                            : PWMTimerTiva.oem4f (.text:PWMTimerTiva_getPeriodMicroSecs)
                  000109c2    00000006     driverlib.lib : sysctl.obj (.text:SysCtlDelay)
                  000109c8    00000006                   : uart.obj (.text:UARTFIFOLevelSet)
                  000109ce    00000006                   : uart.obj (.text:UARTRxErrorClear)
                  000109d4    00000006     grlib.lib : widget.obj (.text:WidgetMutexPut)
                  000109da    00000006     ti.targets.arm.rtsarm.aem4f : System.oem4f (.text:xdc_runtime_System_Module_startup__E)
                  000109e0    00000006     sysbios.aem4f : BIOS.obj (.text:ti_sysbios_family_arm_lm4_TimestampProvider_Module_startup__E)
                  000109e6    00000002     --HOLE-- [fill = 0]
                  000109e8    00000006                   : BIOS.obj (.text:ti_sysbios_family_arm_m3_Hwi_doTaskRestore__I)
                  000109ee    00000002     --HOLE-- [fill = 0]
                  000109f0    00000006                   : BIOS.obj (.text:ti_sysbios_family_arm_m3_Hwi_restoreFxn__E)
                  000109f6    00000002     --HOLE-- [fill = 0]
                  000109f8    00000006                   : BIOS.obj (.text:ti_sysbios_gates_GateHwi_leave__E)
                  000109fe    00000002     --HOLE-- [fill = 0]
                  00010a00    00000006                   : BIOS.obj (.text:ti_sysbios_heaps_HeapMem_isBlocking__E)
                  00010a06    00000002     --HOLE-- [fill = 0]
                  00010a08    00000006                   : BIOS.obj (.text:ti_sysbios_knl_Clock_stop__E)
                  00010a0e    00000002     --HOLE-- [fill = 0]
                  00010a10    00000006                   : BIOS.obj (.text:ti_sysbios_knl_Queue_Instance_init__E)
                  00010a16    00000002     --HOLE-- [fill = 0]
                  00010a18    00000006                   : BIOS.obj (.text:ti_sysbios_knl_Swi_startup__E)
                  00010a1e    00000002     --HOLE-- [fill = 0]
                  00010a20    00000004                   : BIOS.obj (.text:ti_sysbios_family_arm_lm4_Timer_getPeriod__E)
                  00010a24    00000004     --HOLE-- [fill = 0]
                  00010a28    00000004                   : BIOS.obj (.text:ti_sysbios_gates_GateHwi_query__E)
                  00010a2c    00000004     --HOLE-- [fill = 0]
                  00010a30    00000004                   : BIOS.obj (.text:ti_sysbios_gates_GateMutexPri_query__E)
                  00010a34    00000004     --HOLE-- [fill = 0]
                  00010a38    00000004                   : BIOS.obj (.text:ti_sysbios_gates_GateMutex_query__E)
                  00010a3c    00000004     --HOLE-- [fill = 0]
                  00010a40    00000004                   : BIOS.obj (.text:ti_sysbios_knl_Task_startup__E)
                  00010a44    00000004     --HOLE-- [fill = 0]
                  00010a48    00000002                   : BIOS.obj (.text:ti_sysbios_gates_GateHwi_Instance_init__E)
                  00010a4a    00000006     --HOLE-- [fill = 0]
                  00010a50    00000002                   : BIOS.obj (.text:ti_sysbios_knl_Clock_logTick__E)

.const     0    00010a58    000082b8     
                  00010a58    00001950     empty_pem4f.oem4f (.const:xdc_runtime_Text_charTab__A)
                  000123a8    00001000     rtsv7M4_T_le_v4SPD16_eabi.lib : s_exp2.c.obj (.const:tbl)
                  000133a8    0000095e     grlib.lib : fontcm20.obj (.const:.string:g_pui8Cm20Data)
                  00013d06    000008c1               : fontcmss20.obj (.const:.string:g_pui8Cmss20Data)
                  000145c7    00000782               : fontcmss18b.obj (.const:.string:g_pui8Cmss18bData)
                  00014d49    00000759               : fontcm16.obj (.const:.string:g_pui8Cm16Data)
                  000154a2    000005c7               : fontcmss12b.obj (.const:.string:g_pui8Cmss12bData)
                  00015a69    00000514               : fontcmss12.obj (.const:.string:g_pui8Cmss12Data)
                  00015f7d    0000024d     GUIImg.obj (.const:.string:g_pui8Logo)
                  000161ca    0000020d     GUIImg.obj (.const:.string:g_pui8btn140x40)
                  000163d7    0000020d     GUIImg.obj (.const:.string:g_pui8btn150x40Press)
                  000165e4    0000017b     Images.obj (.const:.string:g_pui8CompS)
                  0001675f    0000017b     Images.obj (.const:.string:g_pui8CompW)
                  000168da    0000017b     Images.obj (.const:.string:g_pui8accSlow)
                  00016a55    0000017b     Images.obj (.const:.string:g_pui8accfast)
                  00016bd0    0000017b     Images.obj (.const:.string:g_pui8accmid)
                  00016d4b    00000178     Images.obj (.const:.string:g_pui8CompE)
                  00016ec3    00000178     Images.obj (.const:.string:g_pui8CompN)
                  0001703b    00000163     Images.obj (.const:.string:g_pui8Stop)
                  0001719e    00000160     Images.obj (.const:.string:g_pui8Go)
                  000172fe    0000015d     Images.obj (.const:.string:g_pui8idle)
                  0001745b    00000124     Images.obj (.const:.string:g_pui8Night)
                  0001757f    00000001     empty_pem4f.oem4f (.const:xdc_runtime_Error_policy__C)
                  00017580    00000120     Boot.aem4f : Boot_sysctl.oem4f (.const:g_pppui32XTALtoVCO)
                  000176a0    00000107     GUIImg.obj (.const:.string:g_pui8arrowRight)
                  000177a7    00000101     rtsv7M4_T_le_v4SPD16_eabi.lib : ctype.c.obj (.const:.string:_ctypes_)
                  000178a8    000000f8     Images.obj (.const:.string:g_pui8Day)
                  000179a0    000000dc     empty_pem4f.oem4f (.const:xdc_runtime_Text_nodeTab__A)
                  00017a7c    000000c8     grlib.lib : fontcm16.obj (.const:g_sFontCm16)
                  00017b44    000000c8               : fontcm20.obj (.const:g_sFontCm20)
                  00017c0c    000000c8               : fontcmss12.obj (.const:g_sFontCmss12)
                  00017cd4    000000c8               : fontcmss12b.obj (.const:g_sFontCmss12b)
                  00017d9c    000000c8               : fontcmss18b.obj (.const:g_sFontCmss18b)
                  00017e64    000000c8               : fontcmss20.obj (.const:g_sFontCmss20)
                  00017f2c    000000a5     GUIImg.obj (.const:.string:g_pui8arrowLeft)
                  00017fd1    00000001     --HOLE-- [fill = 0]
                  00017fd2    00000002     empty_pem4f.oem4f (.const:ti_catalog_arm_cortexm4_tiva_ce_Boot_Module__id__C)
                  00017fd4    00000090     driverlib.lib : gpio.obj (.const:g_pui32GPIOBaseAddrs)
                  00018064    0000008a     GlobalDraw.obj (.const:.string)
                  000180ee    00000076     GUIImg.obj (.const:.string:g_pui8backBtn)
                  00018164    00000070     driverlib.lib : interrupt.obj (.const)
                  000181d4    0000006c     Boot.aem4f : Boot_sysctl.oem4f (.const:g_pui32Xtals)
                  00018240    00000060     MotorLib.lib : motorlib.obj (.const:PWM_config)
                  000182a0    00000054     drivers_tivaware.aem4f : GPIOTiva.oem4f (.const:.string)
                  000182f4    00000054     MotorLib.lib : motorlib.obj (.const:motorLibPWMTivaHWAttrs)
                  00018348    0000004c     drivers_tivaware.aem4f : UARTTiva.oem4f (.const)
                  00018394    00000048     empty_pem4f.oem4f (.const:.string)
                  000183dc    00000048     drivers_tivaware.aem4f : GPIOTiva.oem4f (.const:gpioBaseAddresses)
                  00018424    0000003c     empty_pem4f.oem4f (.const:ti_sysbios_family_arm_lm4_Timer_Object__PARAMS__C)
                  00018460    0000003c     empty_pem4f.oem4f (.const:ti_sysbios_knl_Task_Object__PARAMS__C)
                  0001849c    00000030     EK_TM4C1294XL.obj (.const:I2C_config)
                  000184cc    00000030     Boot.aem4f : Boot_sysctl.oem4f (.const:g_sXTALtoMEMTIM)
                  000184fc    00000030     empty_pem4f.oem4f (.const:ti_sysbios_family_arm_m3_Hwi_Object__PARAMS__C)
                  0001852c    00000030     empty_pem4f.oem4f (.const:ti_sysbios_hal_Timer_Object__PARAMS__C)
                  0001855c    00000030     empty_pem4f.oem4f (.const:xdc_runtime_Startup_sfxnTab__A)
                  0001858c    00000028     drivers_tivaware.aem4f : UARTTiva.oem4f (.const:UARTTiva_fxnTable)
                  000185b4    00000028     Kentec320x240x16_ssd2119_spi.obj (.const:g_sKentec320x240x16_SSD2119)
                  000185dc    00000028     empty_pem4f.oem4f (.const:ti_sysbios_heaps_HeapMem_Module__FXNS__C)
                  00018604    00000028     empty_pem4f.oem4f (.const:ti_sysbios_knl_Swi_Object__PARAMS__C)
                  0001862c    00000024     drivers_tivaware.aem4f : UART.oem4f (.const:UART_defaultParams)
                  00018650    00000024     EK_TM4C1294XL.obj (.const:i2cTivaHWAttrs)
                  00018674    00000024     empty_pem4f.oem4f (.const:ti_sysbios_gates_GateHwi_Module__FXNS__C)
                  00018698    00000024     empty_pem4f.oem4f (.const:ti_sysbios_gates_GateMutexPri_Module__FXNS__C)
                  000186bc    00000024     empty_pem4f.oem4f (.const:ti_sysbios_gates_GateMutex_Module__FXNS__C)
                  000186e0    00000024     empty_pem4f.oem4f (.const:ti_sysbios_heaps_HeapMem_Object__PARAMS__C)
                  00018704    00000024     empty_pem4f.oem4f (.const:ti_sysbios_knl_Clock_Object__PARAMS__C)
                  00018728    00000024     empty_pem4f.oem4f (.const:ti_sysbios_knl_Semaphore_Object__PARAMS__C)
                  0001874c    00000020     drivers_tivaware.aem4f : PWMTimerTiva.oem4f (.const)
                  0001876c    00000020                            : PWMTiva.oem4f (.const)
                  0001878c    00000020     empty_pem4f.oem4f (.const:ti_sysbios_family_arm_lm4_Timer_Object__DESC__C)
                  000187ac    00000020     empty_pem4f.oem4f (.const:ti_sysbios_family_arm_m3_Hwi_Object__DESC__C)
                  000187cc    00000020     empty_pem4f.oem4f (.const:ti_sysbios_gates_GateHwi_Object__DESC__C)
                  000187ec    00000020     empty_pem4f.oem4f (.const:ti_sysbios_gates_GateMutexPri_Object__DESC__C)
                  0001880c    00000020     empty_pem4f.oem4f (.const:ti_sysbios_gates_GateMutex_Object__DESC__C)
                  0001882c    00000020     empty_pem4f.oem4f (.const:ti_sysbios_hal_Timer_Object__DESC__C)
                  0001884c    00000020     empty_pem4f.oem4f (.const:ti_sysbios_heaps_HeapMem_Object__DESC__C)
                  0001886c    00000020     empty_pem4f.oem4f (.const:ti_sysbios_knl_Clock_Object__DESC__C)
                  0001888c    00000020     empty_pem4f.oem4f (.const:ti_sysbios_knl_Event_Object__DESC__C)
                  000188ac    00000020     empty_pem4f.oem4f (.const:ti_sysbios_knl_Queue_Object__DESC__C)
                  000188cc    00000020     empty_pem4f.oem4f (.const:ti_sysbios_knl_Semaphore_Object__DESC__C)
                  000188ec    00000020     empty_pem4f.oem4f (.const:ti_sysbios_knl_Swi_Object__DESC__C)
                  0001890c    00000020     empty_pem4f.oem4f (.const:ti_sysbios_knl_Task_Object__DESC__C)
                  0001892c    0000001c     drivers_tivaware.aem4f : I2CTiva.oem4f (.const)
                  00018948    0000001c     touch.obj (.const:g_pi32TouchParameters)
                  00018964    00000018     EK_TM4C1294XL.obj (.const:UART_config)
                  0001897c    00000018     empty_pem4f.oem4f (.const:ti_sysbios_gates_GateHwi_Object__PARAMS__C)
                  00018994    00000018     empty_pem4f.oem4f (.const:ti_sysbios_gates_GateMutexPri_Object__PARAMS__C)
                  000189ac    00000018     empty_pem4f.oem4f (.const:ti_sysbios_gates_GateMutex_Object__PARAMS__C)
                  000189c4    00000018     empty_pem4f.oem4f (.const:ti_sysbios_knl_Event_Object__PARAMS__C)
                  000189dc    00000018     empty_pem4f.oem4f (.const:ti_sysbios_knl_Queue_Object__PARAMS__C)
                  000189f4    00000018     EK_TM4C1294XL.obj (.const:uartTivaHWAttrs)
                  00018a0c    00000018     empty_pem4f.oem4f (.const:xdc_runtime_Startup_sfxnRts__A)
                  00018a24    00000014     EK_TM4C1294XL.obj (.const:GPIOTiva_config)
                  00018a38    00000014     empty_pem4f.oem4f (.const:xdc_runtime_Startup_firstFxns__A)
                  00018a4c    00000010     drivers_tivaware.aem4f : I2C.oem4f (.const)
                  00018a5c    00000010     grlib.lib : context.obj (.const)
                  00018a6c    00000010     MotorLib.lib : motorlib.obj (.const:motorLibPWMTimerTivaHWAttrs)
                  00018a7c    0000000c     drivers_tivaware.aem4f : PWM.oem4f (.const)
                  00018a88    00000008     Boot.aem4f : Boot_sysctl.oem4f (.const)
                  00018a90    00000008     empty_pem4f.oem4f (.const:ti_sysbios_family_arm_m3_Hwi_excHookFuncs__A)
                  00018a98    00000008     empty_pem4f.oem4f (.const:ti_sysbios_knl_Idle_funcList__C)
                  00018aa0    00000008     empty_pem4f.oem4f (.const:xdc_runtime_Startup_firstFxns__C)
                  00018aa8    00000008     empty_pem4f.oem4f (.const:xdc_runtime_Startup_lastFxns__C)
                  00018ab0    00000004     empty_pem4f.oem4f (.const:ti_catalog_arm_cortexm4_tiva_ce_Boot_A_mustNotUseEnhancedClockMode__C)
                  00018ab4    00000004     empty_pem4f.oem4f (.const:ti_catalog_arm_cortexm4_tiva_ce_Boot_Module__diagsEnabled__C)
                  00018ab8    00000004     empty_pem4f.oem4f (.const:ti_catalog_arm_cortexm4_tiva_ce_Boot_Module__diagsIncluded__C)
                  00018abc    00000004     empty_pem4f.oem4f (.const:ti_catalog_arm_cortexm4_tiva_ce_Boot_Module__diagsMask__C)
                  00018ac0    00000004     empty_pem4f.oem4f (.const:ti_sysbios_family_arm_lm4_Timer_E_cannotSupport__C)
                  00018ac4    00000004     empty_pem4f.oem4f (.const:ti_sysbios_family_arm_lm4_Timer_E_invalidTimer__C)
                  00018ac8    00000004     empty_pem4f.oem4f (.const:ti_sysbios_family_arm_lm4_Timer_E_noaltclk__C)
                  00018acc    00000004     empty_pem4f.oem4f (.const:ti_sysbios_family_arm_lm4_Timer_E_notAvailable__C)
                  00018ad0    00000004     empty_pem4f.oem4f (.const:ti_sysbios_family_arm_lm4_Timer_anyMask__C)
                  00018ad4    00000004     empty_pem4f.oem4f (.const:ti_sysbios_family_arm_lm4_Timer_disableFunc__C)
                  00018ad8    00000004     empty_pem4f.oem4f (.const:ti_sysbios_family_arm_lm4_Timer_enableFunc__C)
                  00018adc    00000004     empty_pem4f.oem4f (.const:ti_sysbios_family_arm_lm4_Timer_numTimerDevices__C)
                  00018ae0    00000004     empty_pem4f.oem4f (.const:ti_sysbios_family_arm_lm4_Timer_startupNeeded__C)
                  00018ae4    00000004     empty_pem4f.oem4f (.const:ti_sysbios_family_arm_m3_Hwi_E_NMI__C)
                  00018ae8    00000004     empty_pem4f.oem4f (.const:ti_sysbios_family_arm_m3_Hwi_E_alreadyDefined__C)
                  00018aec    00000004     empty_pem4f.oem4f (.const:ti_sysbios_family_arm_m3_Hwi_E_busFault__C)
                  00018af0    00000004     empty_pem4f.oem4f (.const:ti_sysbios_family_arm_m3_Hwi_E_debugMon__C)
                  00018af4    00000004     empty_pem4f.oem4f (.const:ti_sysbios_family_arm_m3_Hwi_E_hardFault__C)
                  00018af8    00000004     empty_pem4f.oem4f (.const:ti_sysbios_family_arm_m3_Hwi_E_memFault__C)
                  00018afc    00000004     empty_pem4f.oem4f (.const:ti_sysbios_family_arm_m3_Hwi_E_noIsr__C)
                  00018b00    00000004     empty_pem4f.oem4f (.const:ti_sysbios_family_arm_m3_Hwi_E_reserved__C)
                  00018b04    00000004     empty_pem4f.oem4f (.const:ti_sysbios_family_arm_m3_Hwi_E_svCall__C)
                  00018b08    00000004     empty_pem4f.oem4f (.const:ti_sysbios_family_arm_m3_Hwi_E_usageFault__C)
                  00018b0c    00000004     empty_pem4f.oem4f (.const:ti_sysbios_family_arm_m3_Hwi_NUM_INTERRUPTS__C)
                  00018b10    00000004     empty_pem4f.oem4f (.const:ti_sysbios_family_arm_m3_Hwi_Object__count__C)
                  00018b14    00000004     empty_pem4f.oem4f (.const:ti_sysbios_family_arm_m3_Hwi_ccr__C)
                  00018b18    00000004     empty_pem4f.oem4f (.const:ti_sysbios_family_arm_m3_Hwi_excHandlerFunc__C)
                  00018b1c    00000004     empty_pem4f.oem4f (.const:ti_sysbios_family_arm_m3_Hwi_excHookFuncs__C)
                  00018b20    00000004     empty_pem4f.oem4f (.const:ti_sysbios_family_arm_m3_Hwi_nullIsrFunc__C)
                  00018b24    00000004     empty_pem4f.oem4f (.const:ti_sysbios_family_arm_m3_Hwi_priGroup__C)
                  00018b28    00000004     empty_pem4f.oem4f (.const:ti_sysbios_family_arm_m3_TaskSupport_stackAlignment__C)
                  00018b2c    00000004     empty_pem4f.oem4f (.const:ti_sysbios_gates_GateMutexPri_A_badContext__C)
                  00018b30    00000004     empty_pem4f.oem4f (.const:ti_sysbios_gates_GateMutexPri_A_enterTaskDisabled__C)
                  00018b34    00000004     empty_pem4f.oem4f (.const:ti_sysbios_gates_GateMutexPri_Instance_State_pendQ__O)
                  00018b38    00000004     empty_pem4f.oem4f (.const:ti_sysbios_gates_GateMutexPri_Module__diagsEnabled__C)
                  00018b3c    00000004     empty_pem4f.oem4f (.const:ti_sysbios_gates_GateMutexPri_Module__diagsIncluded__C)
                  00018b40    00000004     empty_pem4f.oem4f (.const:ti_sysbios_gates_GateMutexPri_Module__diagsMask__C)
                  00018b44    00000004     empty_pem4f.oem4f (.const:ti_sysbios_gates_GateMutex_A_badContext__C)
                  00018b48    00000004     empty_pem4f.oem4f (.const:ti_sysbios_gates_GateMutex_Instance_State_sem__O)
                  00018b4c    00000004     empty_pem4f.oem4f (.const:ti_sysbios_gates_GateMutex_Module__diagsEnabled__C)
                  00018b50    00000004     empty_pem4f.oem4f (.const:ti_sysbios_gates_GateMutex_Module__diagsIncluded__C)
                  00018b54    00000004     empty_pem4f.oem4f (.const:ti_sysbios_gates_GateMutex_Module__diagsMask__C)
                  00018b58    00000004     empty_pem4f.oem4f (.const:ti_sysbios_hal_Hwi_E_stackOverflow__C)
                  00018b5c    00000004     empty_pem4f.oem4f (.const:ti_sysbios_hal_SecondsClock_Module_State_clock__O)
                  00018b60    00000004     empty_pem4f.oem4f (.const:ti_sysbios_heaps_HeapMem_A_align__C)
                  00018b64    00000004     empty_pem4f.oem4f (.const:ti_sysbios_heaps_HeapMem_A_heapSize__C)
                  00018b68    00000004     empty_pem4f.oem4f (.const:ti_sysbios_heaps_HeapMem_A_invalidFree__C)
                  00018b6c    00000004     empty_pem4f.oem4f (.const:ti_sysbios_heaps_HeapMem_A_zeroBlock__C)
                  00018b70    00000004     empty_pem4f.oem4f (.const:ti_sysbios_heaps_HeapMem_E_memory__C)
                  00018b74    00000004     empty_pem4f.oem4f (.const:ti_sysbios_heaps_HeapMem_Module__diagsEnabled__C)
                  00018b78    00000004     empty_pem4f.oem4f (.const:ti_sysbios_heaps_HeapMem_Module__diagsIncluded__C)
                  00018b7c    00000004     empty_pem4f.oem4f (.const:ti_sysbios_heaps_HeapMem_Module__diagsMask__C)
                  00018b80    00000004     empty_pem4f.oem4f (.const:ti_sysbios_heaps_HeapMem_Module__gateObj__C)
                  00018b84    00000004     empty_pem4f.oem4f (.const:ti_sysbios_heaps_HeapMem_Object__count__C)
                  00018b88    00000004     empty_pem4f.oem4f (.const:ti_sysbios_heaps_HeapMem_reqAlign__C)
                  00018b8c    00000004     empty_pem4f.oem4f (.const:ti_sysbios_knl_Clock_A_badThreadType__C)
                  00018b90    00000004     empty_pem4f.oem4f (.const:ti_sysbios_knl_Clock_Module_State_clockQ__O)
                  00018b94    00000004     empty_pem4f.oem4f (.const:ti_sysbios_knl_Clock_Module__diagsEnabled__C)
                  00018b98    00000004     empty_pem4f.oem4f (.const:ti_sysbios_knl_Clock_Module__diagsIncluded__C)
                  00018b9c    00000004     empty_pem4f.oem4f (.const:ti_sysbios_knl_Clock_Module__diagsMask__C)
                  00018ba0    00000004     empty_pem4f.oem4f (.const:ti_sysbios_knl_Clock_tickPeriod__C)
                  00018ba4    00000004     empty_pem4f.oem4f (.const:ti_sysbios_knl_Event_A_badContext__C)
                  00018ba8    00000004     empty_pem4f.oem4f (.const:ti_sysbios_knl_Event_A_eventInUse__C)
                  00018bac    00000004     empty_pem4f.oem4f (.const:ti_sysbios_knl_Event_A_nullEventId__C)
                  00018bb0    00000004     empty_pem4f.oem4f (.const:ti_sysbios_knl_Event_A_nullEventMasks__C)
                  00018bb4    00000004     empty_pem4f.oem4f (.const:ti_sysbios_knl_Event_A_pendTaskDisabled__C)
                  00018bb8    00000004     empty_pem4f.oem4f (.const:ti_sysbios_knl_Event_Instance_State_pendQ__O)
                  00018bbc    00000004     empty_pem4f.oem4f (.const:ti_sysbios_knl_Event_Module__diagsEnabled__C)
                  00018bc0    00000004     empty_pem4f.oem4f (.const:ti_sysbios_knl_Event_Module__diagsIncluded__C)
                  00018bc4    00000004     empty_pem4f.oem4f (.const:ti_sysbios_knl_Event_Module__diagsMask__C)
                  00018bc8    00000004     empty_pem4f.oem4f (.const:ti_sysbios_knl_Idle_funcList__A)
                  00018bcc    00000004     empty_pem4f.oem4f (.const:ti_sysbios_knl_Mailbox_Instance_State_freeQue__O)
                  00018bd0    00000004     empty_pem4f.oem4f (.const:ti_sysbios_knl_Mailbox_Object__count__C)
                  00018bd4    00000004     empty_pem4f.oem4f (.const:ti_sysbios_knl_Mailbox_maxTypeAlign__C)
                  00018bd8    00000004     empty_pem4f.oem4f (.const:ti_sysbios_knl_Semaphore_A_badContext__C)
                  00018bdc    00000004     empty_pem4f.oem4f (.const:ti_sysbios_knl_Semaphore_A_noEvents__C)
                  00018be0    00000004     empty_pem4f.oem4f (.const:ti_sysbios_knl_Semaphore_A_overflow__C)
                  00018be4    00000004     empty_pem4f.oem4f (.const:ti_sysbios_knl_Semaphore_A_pendTaskDisabled__C)
                  00018be8    00000004     empty_pem4f.oem4f (.const:ti_sysbios_knl_Semaphore_Instance_State_pendQ__O)
                  00018bec    00000004     empty_pem4f.oem4f (.const:ti_sysbios_knl_Semaphore_Module__diagsEnabled__C)
                  00018bf0    00000004     empty_pem4f.oem4f (.const:ti_sysbios_knl_Semaphore_Module__diagsIncluded__C)
                  00018bf4    00000004     empty_pem4f.oem4f (.const:ti_sysbios_knl_Semaphore_Module__diagsMask__C)
                  00018bf8    00000004     empty_pem4f.oem4f (.const:ti_sysbios_knl_Swi_A_badPriority__C)
                  00018bfc    00000004     empty_pem4f.oem4f (.const:ti_sysbios_knl_Swi_Module__diagsEnabled__C)
                  00018c00    00000004     empty_pem4f.oem4f (.const:ti_sysbios_knl_Swi_Module__diagsIncluded__C)
                  00018c04    00000004     empty_pem4f.oem4f (.const:ti_sysbios_knl_Swi_Module__diagsMask__C)
                  00018c08    00000004     empty_pem4f.oem4f (.const:ti_sysbios_knl_Swi_Object__count__C)
                  00018c0c    00000004     empty_pem4f.oem4f (.const:ti_sysbios_knl_Task_A_badPriority__C)
                  00018c10    00000004     empty_pem4f.oem4f (.const:ti_sysbios_knl_Task_A_badTaskState__C)
                  00018c14    00000004     empty_pem4f.oem4f (.const:ti_sysbios_knl_Task_A_badThreadType__C)
                  00018c18    00000004     empty_pem4f.oem4f (.const:ti_sysbios_knl_Task_A_badTimeout__C)
                  00018c1c    00000004     empty_pem4f.oem4f (.const:ti_sysbios_knl_Task_A_noPendElem__C)
                  00018c20    00000004     empty_pem4f.oem4f (.const:ti_sysbios_knl_Task_A_sleepTaskDisabled__C)
                  00018c24    00000004     empty_pem4f.oem4f (.const:ti_sysbios_knl_Task_E_spOutOfBounds__C)
                  00018c28    00000004     empty_pem4f.oem4f (.const:ti_sysbios_knl_Task_E_stackOverflow__C)
                  00018c2c    00000004     empty_pem4f.oem4f (.const:ti_sysbios_knl_Task_Module_State_inactiveQ__O)
                  00018c30    00000004     empty_pem4f.oem4f (.const:ti_sysbios_knl_Task_Module__diagsEnabled__C)
                  00018c34    00000004     empty_pem4f.oem4f (.const:ti_sysbios_knl_Task_Module__diagsIncluded__C)
                  00018c38    00000004     empty_pem4f.oem4f (.const:ti_sysbios_knl_Task_Module__diagsMask__C)
                  00018c3c    00000004     empty_pem4f.oem4f (.const:ti_sysbios_knl_Task_Object__count__C)
                  00018c40    00000004     empty_pem4f.oem4f (.const:ti_sysbios_knl_Task_allBlockedFunc__C)
                  00018c44    00000004     empty_pem4f.oem4f (.const:ti_sysbios_knl_Task_defaultStackHeap__C)
                  00018c48    00000004     empty_pem4f.oem4f (.const:ti_sysbios_knl_Task_defaultStackSize__C)
                  00018c4c    00000004     empty_pem4f.oem4f (.const:ti_sysbios_knl_Task_numConstructedTasks__C)
                  00018c50    00000004     empty_pem4f.oem4f (.const:xdc_runtime_Assert_E_assertFailed__C)
                  00018c54    00000004     empty_pem4f.oem4f (.const:xdc_runtime_Core_A_initializedParams__C)
                  00018c58    00000004     empty_pem4f.oem4f (.const:xdc_runtime_Core_Module__diagsEnabled__C)
                  00018c5c    00000004     empty_pem4f.oem4f (.const:xdc_runtime_Core_Module__diagsIncluded__C)
                  00018c60    00000004     empty_pem4f.oem4f (.const:xdc_runtime_Core_Module__diagsMask__C)
                  00018c64    00000004     empty_pem4f.oem4f (.const:xdc_runtime_Error_E_generic__C)
                  00018c68    00000004     empty_pem4f.oem4f (.const:xdc_runtime_Error_E_memory__C)
                  00018c6c    00000004     empty_pem4f.oem4f (.const:xdc_runtime_Error_Module__diagsEnabled__C)
                  00018c70    00000004     empty_pem4f.oem4f (.const:xdc_runtime_Error_Module__diagsIncluded__C)
                  00018c74    00000004     empty_pem4f.oem4f (.const:xdc_runtime_Error_Module__diagsMask__C)
                  00018c78    00000004     empty_pem4f.oem4f (.const:xdc_runtime_Error_Module__loggerFxn8__C)
                  00018c7c    00000004     empty_pem4f.oem4f (.const:xdc_runtime_Error_Module__loggerObj__C)
                  00018c80    00000004     empty_pem4f.oem4f (.const:xdc_runtime_Error_policyFxn__C)
                  00018c84    00000004     empty_pem4f.oem4f (.const:xdc_runtime_Error_raiseHook__C)
                  00018c88    00000004     empty_pem4f.oem4f (.const:xdc_runtime_IGateProvider_Interface__BASE__C)
                  00018c8c    00000004     empty_pem4f.oem4f (.const:xdc_runtime_IHeap_Interface__BASE__C)
                  00018c90    00000004     empty_pem4f.oem4f (.const:xdc_runtime_IModule_Interface__BASE__C)
                  00018c94    00000004     empty_pem4f.oem4f (.const:xdc_runtime_Log_L_error__C)
                  00018c98    00000004     empty_pem4f.oem4f (.const:xdc_runtime_Memory_defaultHeapInstance__C)
                  00018c9c    00000004     empty_pem4f.oem4f (.const:xdc_runtime_Startup_execImpl__C)
                  00018ca0    00000004     empty_pem4f.oem4f (.const:xdc_runtime_Startup_lastFxns__A)
                  00018ca4    00000004     empty_pem4f.oem4f (.const:xdc_runtime_Startup_maxPasses__C)
                  00018ca8    00000004     empty_pem4f.oem4f (.const:xdc_runtime_Startup_sfxnRts__C)
                  00018cac    00000004     empty_pem4f.oem4f (.const:xdc_runtime_Startup_sfxnTab__C)
                  00018cb0    00000004     empty_pem4f.oem4f (.const:xdc_runtime_SysMin_bufSize__C)
                  00018cb4    00000004     empty_pem4f.oem4f (.const:xdc_runtime_SysMin_outputFunc__C)
                  00018cb8    00000004     empty_pem4f.oem4f (.const:xdc_runtime_System_Module__gateObj__C)
                  00018cbc    00000004     empty_pem4f.oem4f (.const:xdc_runtime_System_abortFxn__C)
                  00018cc0    00000004     empty_pem4f.oem4f (.const:xdc_runtime_System_exitFxn__C)
                  00018cc4    00000004     empty_pem4f.oem4f (.const:xdc_runtime_System_extendFxn__C)
                  00018cc8    00000004     empty_pem4f.oem4f (.const:xdc_runtime_System_maxAtexitHandlers__C)
                  00018ccc    00000004     empty_pem4f.oem4f (.const:xdc_runtime_Text_charTab__C)
                  00018cd0    00000004     empty_pem4f.oem4f (.const:xdc_runtime_Text_nameEmpty__C)
                  00018cd4    00000004     empty_pem4f.oem4f (.const:xdc_runtime_Text_nameStatic__C)
                  00018cd8    00000004     empty_pem4f.oem4f (.const:xdc_runtime_Text_nameUnknown__C)
                  00018cdc    00000004     empty_pem4f.oem4f (.const:xdc_runtime_Text_nodeTab__C)
                  00018ce0    00000004     empty_pem4f.oem4f (.const:xdc_runtime_Text_visitRopeFxn__C)
                  00018ce4    00000002     empty_pem4f.oem4f (.const:ti_sysbios_family_arm_lm4_Timer_Module__id__C)
                  00018ce6    00000002     empty_pem4f.oem4f (.const:ti_sysbios_family_arm_lm4_Timer_supportsAltclk__C)
                  00018ce8    00000002     empty_pem4f.oem4f (.const:ti_sysbios_family_arm_m3_Hwi_Module__id__C)
                  00018cea    00000002     empty_pem4f.oem4f (.const:ti_sysbios_gates_GateMutexPri_Module__id__C)
                  00018cec    00000002     empty_pem4f.oem4f (.const:ti_sysbios_gates_GateMutex_Module__id__C)
                  00018cee    00000002     empty_pem4f.oem4f (.const:ti_sysbios_hal_Hwi_Module__id__C)
                  00018cf0    00000002     empty_pem4f.oem4f (.const:ti_sysbios_heaps_HeapMem_Module__id__C)
                  00018cf2    00000002     empty_pem4f.oem4f (.const:ti_sysbios_knl_Clock_Module__id__C)
                  00018cf4    00000002     empty_pem4f.oem4f (.const:ti_sysbios_knl_Event_Module__id__C)
                  00018cf6    00000002     empty_pem4f.oem4f (.const:ti_sysbios_knl_Semaphore_Module__id__C)
                  00018cf8    00000002     empty_pem4f.oem4f (.const:ti_sysbios_knl_Swi_Module__id__C)
                  00018cfa    00000002     empty_pem4f.oem4f (.const:ti_sysbios_knl_Task_Module__id__C)
                  00018cfc    00000002     empty_pem4f.oem4f (.const:xdc_runtime_Core_Module__id__C)
                  00018cfe    00000002     empty_pem4f.oem4f (.const:xdc_runtime_Error_Module__loggerDefined__C)
                  00018d00    00000002     empty_pem4f.oem4f (.const:xdc_runtime_Error_maxDepth__C)
                  00018d02    00000002     empty_pem4f.oem4f (.const:xdc_runtime_Main_Module__id__C)
                  00018d04    00000002     empty_pem4f.oem4f (.const:xdc_runtime_Memory_Module__id__C)
                  00018d06    00000002     empty_pem4f.oem4f (.const:xdc_runtime_SysMin_flushAtExit__C)
                  00018d08    00000002     empty_pem4f.oem4f (.const:xdc_runtime_Text_charCnt__C)
                  00018d0a    00000002     empty_pem4f.oem4f (.const:xdc_runtime_Text_isLoaded__C)
                  00018d0c    00000002     empty_pem4f.oem4f (.const:xdc_runtime_Text_registryModsLastId__C)
                  00018d0e    00000002     empty_pem4f.oem4f (.const:xdc_runtime_Text_unnamedModsLastId__C)

.cinit     0    00018d10    00000458     
                  00018d10    00000422     (.cinit..data.load) [load image, compression = lzss]
                  00019132    00000002     --HOLE-- [fill = 0]
                  00019134    0000000c     (__TI_handler_table)
                  00019140    00000008     (.cinit..bss.load) [load image, compression = zero_init]
                  00019148    00000008     (.cinit..vecs.load) [load image, compression = zero_init]
                  00019150    00000018     (__TI_cinit_table)

.init_array 
*          0    00000000    00000000     UNINITIALIZED

.resetVecs 
*          0    00000000    0000003c     
                  00000000    0000003c     empty_pem4f.oem4f (.resetVecs)

.bss       0    20000400    00004a9c     UNINITIALIZED
                  20000400    00001000     (.common:ti_sysbios_heaps_HeapMem_Instance_State_0_buf__A)
                  20001400    00000800     (.common:readAccelStack)
                  20001c00    00000800     (.common:readLightStack)
                  20002400    00000800     (.common:task0Stack)
                  20002c00    00000800     (.common:taskTouchStack)
                  20003400    00000400     (.common:psDMAControlTable)
                  20003800    00000400     (.common:xdc_runtime_SysMin_Module_State_0_outbuf__A)
                  20003c00    00000360     (.common:ti_sysbios_family_arm_m3_Hwi_dispatchTable)
                  20003f60    00000200     empty_pem4f.oem4f (.bss:taskStackSection)
                  20004160    00000190     (.common:AccelData)
                  200042f0    00000190     (.common:LightData)
                  20004480    00000180     (.common:i2cTivaObjects)
                  20004600    00000140     grlib.lib : widget.obj (.bss:g_psMQ)
                  20004740    00000120     rtsv7M4_T_le_v4SPD16_eabi.lib : trgmsg.c.obj (.bss:_CIOBUF_)
                  20004860    000000f0     (.common:bmi160_accel_values)
                  20004950    000000cc     (.common:uartTivaObjects)
                  20004a1c    00000004     (.common:EstopEvent)
                  20004a20    000000a0     (.common:Sensor_Filtered_Buffer)
                  20004ac0    00000090     drivers_tivaware.aem4f : GPIOTiva.oem4f (.bss:gpioCallbackInfo)
                  20004b50    00000050     (.common:readAccelStruct)
                  20004ba0    00000050     (.common:readLightStruct)
                  20004bf0    00000050     (.common:task0Struct)
                  20004c40    00000050     (.common:taskTouchStruct)
                  20004c90    00000038     (.common:motorLibPWMObjects)
                  20004cc8    0000002c     (.common:sContext)
                  20004cf4    00000004     (.common:ScreenGate)
                  20004cf8    00000028     (.common:opt3001_light_values)
                  20004d20    00000024     (.common:clk0Struct)
                  20004d44    00000020     MotorLib.lib : motorlib.obj (.bss:PWMStruct)
                  20004d64    00000020     (.common:g_pui8Dictionary)
                  20004d84    00000020     (.common:uartTivaRingBuffer)
                  20004da4    00000018     (.common:datetime)
                  20004dbc    00000018     (.common:gHwiprms)
                  20004dd4    00000018     (.common:motorLibPWMTimerObjects)
                  20004dec    00000014     (.common:evtStruct)
                  20004e00    00000010     touch.obj (.bss:g_pi16Samples)
                  20004e10    00000010     (.common:i2cParams)
                  20004e20    00000008     touch.obj (.bss)
                  20004e28    00000008     (.common:AccBox)
                  20004e30    00000008     (.common:Banner)
                  20004e38    00000008     (.common:BannerB)
                  20004e40    00000008     (.common:CurrBox)
                  20004e48    00000008     (.common:Distbox)
                  20004e50    00000008     (.common:clearBox)
                  20004e58    00000008     (.common:graphClear)
                  20004e60    00000008     (.common:parmbuf)
                  20004e68    00000004     (.common:SwiHandle)
                  20004e6c    00000004     (.common:g_pi32ParmSet)
                  20004e70    00000004     (.common:g_psGrLibDefaults)
                  20004e74    00000004     (.common:g_ui32Panel)
                  20004e78    00000004     (.common:gateHwi)
                  20004e7c    00000004     (.common:gpioInterruptVectors)
                  20004e80    00000004     (.common:i2c)
                  20004e84    00000004     (.common:postedStop)
                  20004e88    00000004     (.common:swiAccelSensorFilterHandle)
                  20004e8c    00000004     (.common:swiLightSensorFilterHandle)
                  20004e90    00000004     (.common:timerclock)
                  20004e94    00000004     (.common:uart)
                  20004e98    00000002     (.common:g_i16TouchX)
                  20004e9a    00000002     (.common:g_i16TouchY)

.data      0    20004ea0    00000d08     UNINITIALIZED
                  20004ea0    00000080     empty_pem4f.oem4f (.data:ti_sysbios_family_arm_lm4_Timer_Object__table__V)
                  20004f20    00000080     empty_pem4f.oem4f (.data:ti_sysbios_knl_Swi_Module_State_0_readyQ__A)
                  20004fa0    00000080     empty_pem4f.oem4f (.data:ti_sysbios_knl_Task_Module_State_0_readyQ__A)
                  20005020    0000005c     GlobalDraw.obj (.data:MotorSpeedSlider)
                  2000507c    00000050     GlobalDraw.obj (.data:AccDownBtn)
                  200050cc    00000050     GlobalDraw.obj (.data:AccUpBtn)
                  2000511c    00000050     GlobalDraw.obj (.data:CurrentDownBtn)
                  2000516c    00000050     GlobalDraw.obj (.data:CurrentUpBtn)
                  200051bc    00000050     GlobalDraw.obj (.data:DistDownBtn)
                  2000520c    00000050     GlobalDraw.obj (.data:DistUpBtn)
                  2000525c    00000050     GlobalDraw.obj (.data:GraphPgBtn)
                  200052ac    00000050     GlobalDraw.obj (.data:LightGraphBtn)
                  200052fc    00000050     GlobalDraw.obj (.data:MotorGraphBtn)
                  2000534c    00000050     GlobalDraw.obj (.data:MotorMode)
                  2000539c    00000050     GlobalDraw.obj (.data:MotorPgBtn)
                  200053ec    00000050     GlobalDraw.obj (.data:PowerGraphBtn)
                  2000543c    00000050     GlobalDraw.obj (.data:SensorPgBtn)
                  2000548c    00000050     GlobalDraw.obj (.data:TestGraphBtn)
                  200054dc    00000050     GlobalDraw.obj (.data:backGraphBtn)
                  2000552c    00000050     GlobalDraw.obj (.data:backGraphSelectBtn)
                  2000557c    00000050     GlobalDraw.obj (.data:backMotorBtn)
                  200055cc    00000050     GlobalDraw.obj (.data:backSensorBtn)
                  2000561c    0000004c     empty_pem4f.oem4f (.data:ti_sysbios_knl_Task_Object__table__V)
                  20005668    00000048     empty_pem4f.oem4f (.data:ti_sysbios_family_arm_m3_Hwi_Object__table__V)
                  200056b0    00000044     empty_pem4f.oem4f (.data:ti_sysbios_knl_Task_Module__state__V)
                  200056f4    00000040     GlobalDraw.obj (.data:g_Acceleration)
                  20005734    00000040     GlobalDraw.obj (.data:g_MotorStat)
                  20005774    00000040     GlobalDraw.obj (.data:g_sCanvas2)
                  200057b4    00000040     GlobalDraw.obj (.data:g_sCanvas3)
                  200057f4    00000040     GlobalDraw.obj (.data:g_scompass)
                  20005834    00000040     empty_pem4f.oem4f (.data:ti_sysbios_family_arm_lm4_Timer_Module_State_0_device__A)
                  20005874    0000003c     empty_pem4f.oem4f (.data:ti_sysbios_hal_SecondsClock_Module__state__V)
                  200058b0    00000034     empty_pem4f.oem4f (.data:ti_sysbios_family_arm_m3_Hwi_Module__state__V)
                  200058e4    00000030     empty_pem4f.oem4f (.data:ti_sysbios_knl_Swi_Object__table__V)
                  20005914    0000002d     grlib.lib : widget.obj (.data)
                  20005941    00000002     GraphData.obj (.data)
                  20005943    00000001     GlobalDraw.obj (.data)
                  20005944    0000002c     empty_pem4f.oem4f (.data:ti_sysbios_knl_Clock_Module__state__V)
                  20005970    00000028     sensors.obj (.data)
                  20005998    00000024     Motor.obj (.data)
                  200059bc    00000024     empty_pem4f.oem4f (.data:ti_sysbios_BIOS_Module__state__V)
                  200059e0    00000020     empty_pem4f.oem4f (.data:ti_sysbios_family_arm_lm4_Timer_Module_State_0_handles__A)
                  20005a00    0000001c     EK_TM4C1294XL.obj (.data:gpioPinConfigs)
                  20005a1c    0000001c     empty_pem4f.oem4f (.data:ti_sysbios_gates_GateMutex_Object__table__V)
                  20005a38    0000001c     empty_pem4f.oem4f (.data:ti_sysbios_knl_Swi_Module__state__V)
                  20005a54    00000018     drivers_tivaware.aem4f : PWMTiva.oem4f (.data)
                  20005a6c    00000018     empty_pem4f.oem4f (.data:ti_sysbios_gates_GateMutexPri_Object__table__V)
                  20005a84    00000018     empty_pem4f.oem4f (.data:ti_sysbios_heaps_HeapMem_Object__table__V)
                  20005a9c    00000014     empty.obj (.data)
                  20005ab0    0000000c     empty_pem4f.oem4f (.data:ti_sysbios_family_arm_lm4_Timer_Module__state__V)
                  20005abc    0000000c     empty_pem4f.oem4f (.data:xdc_runtime_SysMin_Module__state__V)
                  20005ac8    00000008     rtsv7M4_T_le_v4SPD16_eabi.lib : _lock.c.obj (.data:$O1$$)
                  20005ad0    00000008     EK_TM4C1294XL.obj (.data:gpioCallbackFunctions)
                  20005ad8    00000008     empty_pem4f.oem4f (.data:ti_sysbios_family_arm_lm4_Timer_Module__root__V)
                  20005ae0    00000008     empty_pem4f.oem4f (.data:ti_sysbios_family_arm_lm4_TimestampProvider_Module__state__V)
                  20005ae8    00000008     empty_pem4f.oem4f (.data:ti_sysbios_family_arm_m3_Hwi_Module__root__V)
                  20005af0    00000008     empty_pem4f.oem4f (.data:ti_sysbios_gates_GateHwi_Module__root__V)
                  20005af8    00000008     empty_pem4f.oem4f (.data:ti_sysbios_gates_GateMutexPri_Module__root__V)
                  20005b00    00000008     empty_pem4f.oem4f (.data:ti_sysbios_gates_GateMutex_Module__root__V)
                  20005b08    00000008     empty_pem4f.oem4f (.data:ti_sysbios_hal_Timer_Module__root__V)
                  20005b10    00000008     empty_pem4f.oem4f (.data:ti_sysbios_heaps_HeapMem_Module__root__V)
                  20005b18    00000008     empty_pem4f.oem4f (.data:ti_sysbios_knl_Clock_Module__root__V)
                  20005b20    00000008     empty_pem4f.oem4f (.data:ti_sysbios_knl_Event_Module__root__V)
                  20005b28    00000008     empty_pem4f.oem4f (.data:ti_sysbios_knl_Queue_Module__root__V)
                  20005b30    00000008     empty_pem4f.oem4f (.data:ti_sysbios_knl_Semaphore_Module__root__V)
                  20005b38    00000008     empty_pem4f.oem4f (.data:ti_sysbios_knl_Swi_Module__root__V)
                  20005b40    00000008     empty_pem4f.oem4f (.data:ti_sysbios_knl_Task_Module__root__V)
                  20005b48    00000008     empty_pem4f.oem4f (.data:xdc_runtime_Registry_Module__state__V)
                  20005b50    00000008     empty_pem4f.oem4f (.data:xdc_runtime_Startup_Module__state__V)
                  20005b58    00000008     empty_pem4f.oem4f (.data:xdc_runtime_System_Module_State_0_atexitHandlers__A)
                  20005b60    00000008     empty_pem4f.oem4f (.data:xdc_runtime_System_Module__state__V)
                  20005b68    00000005     Estop.obj (.data)
                  20005b6d    00000001     --HOLE--
                  20005b6e    00000002     empty_pem4f.oem4f (.data:ti_sysbios_family_arm_m3_Hwi_Module_State_0_excActive__A)
                  20005b70    00000005     drivers_tivaware.aem4f : GPIOTiva.oem4f (.data)
                  20005b75    00000001     --HOLE--
                  20005b76    00000002     empty_pem4f.oem4f (.data:xdc_runtime_Error_Module__state__V)
                  20005b78    00000004     bmi160.obj (.data)
                  20005b7c    00000004     drivers_tivaware.aem4f : I2C.oem4f (.data)
                  20005b80    00000004                            : PWM.oem4f (.data)
                  20005b84    00000004                            : UART.oem4f (.data)
                  20005b88    00000004     rtsv7M4_T_le_v4SPD16_eabi.lib : errno.c.obj (.data)
                  20005b8c    00000004                                   : stkdepth_vars.c.obj (.data)
                  20005b90    00000004     empty_pem4f.oem4f (.data:ti_sysbios_family_arm_m3_Hwi_Module_State_0_excContext__A)
                  20005b94    00000004     empty_pem4f.oem4f (.data:ti_sysbios_family_arm_m3_Hwi_Module_State_0_excStack__A)
                  20005b98    00000004     empty_pem4f.oem4f (.data:ti_sysbios_gates_GateHwi_Object__table__V)
                  20005b9c    00000004     empty_pem4f.oem4f (.data:ti_sysbios_knl_Task_Module_State_0_idleTask__A)
                  20005ba0    00000004     touch.obj (.data)
                  20005ba4    00000004     empty_pem4f.oem4f (.data:xdc_runtime_Memory_Module__state__V)

.stack     0    20005ba8    00000400     UNINITIALIZED
                  20005ba8    00000400     --HOLE--

.bootVecs 
*          0    00000000    00000008     DSECT
                  00000000    00000008     boot.aem4f : boot.oem4f (.bootVecs)

.vecs      0    20000000    00000360     UNINITIALIZED
                  20000000    00000360     empty_pem4f.oem4f (.vecs)

xdc.meta   0    00000000    0000010d     COPY SECTION
                  00000000    0000010d     empty_pem4f.oem4f (xdc.meta)

__llvm_prf_cnts 
*          0    20000000    00000000     UNINITIALIZED

MODULE SUMMARY

       Module                             code    ro data   rw data
       ------                             ----    -------   -------
    .\
       empty.obj                          932     0         9596   
       EK_TM4C1294XL.obj                  392     152       656    
       Clock.obj                          840     0         0      
       UARTLocal.obj                      70      0         0      
    +--+----------------------------------+-------+---------+---------+
       Total:                             2234    152       10252  
                                                                   
    .\Images\
       Images.obj                         0       4243      0      
       GUIImg.obj                         0       2185      0      
    +--+----------------------------------+-------+---------+---------+
       Total:                             0       6428      0      
                                                                   
    .\Interface\
       GlobalDraw.obj                     6150    138       1957   
       GraphData.obj                      92      0         802    
       GraphFunctions.obj                 478     0         0      
    +--+----------------------------------+-------+---------+---------+
       Total:                             6720    138       2759   
                                                                   
    .\drivers\
       Kentec320x240x16_ssd2119_spi.obj   1968    40        0      
       touch.obj                          1280    28        36     
       pinout.obj                         420     0         0      
    +--+----------------------------------+-------+---------+---------+
       Total:                             3668    68        36     
                                                                   
    .\drivers\Motor\
       Motor.obj                          2125    0         104    
       Estop.obj                          128     0         33     
    +--+----------------------------------+-------+---------+---------+
       Total:                             2253    0         137    
                                                                   
    .\sensors\
       sensors.obj                        1344    0         504    
       bmi160.obj                         428     0         4      
       opt3001.obj                        346     0         0      
       i2cDriver.obj                      168     0         0      
    +--+----------------------------------+-------+---------+---------+
       Total:                             2286    0         508    
                                                                   
    C:\Users\akank\Documents\GitHub\EmbeddedSystemsVehicleMotorSystem\EGH456MotorProject\Debug\configPkg\package\cfg\
       empty_pem4f.oem4f                  2652    8615      8592   
    +--+----------------------------------+-------+---------+---------+
       Total:                             2652    8615      8592   
                                                                   
    ../LIBS/MotorLib.lib
       motorlib.obj                       1708    196       112    
    +--+----------------------------------+-------+---------+---------+
       Total:                             1708    196       112    
                                                                   
    C:/ti/tirtos_tivac_2_16_00_08/products/TivaWare_C_Series-2.1.1.71b/driverlib/ccs/Debug/driverlib.lib
       gpio.obj                           752     144       0      
       timer.obj                          314     0         0      
       uart.obj                           226     0         0      
       interrupt.obj                      104     112       0      
       adc.obj                            214     0         0      
       pwm.obj                            178     0         0      
       i2c.obj                            154     0         0      
       sysctl.obj                         134     0         0      
       ssi.obj                            106     0         0      
       fpu.obj                            32      0         0      
       udma.obj                           28      0         0      
    +--+----------------------------------+-------+---------+---------+
       Total:                             2242    256       0      
                                                                   
    C:/ti/tirtos_tivac_2_16_00_08/products/tidrivers_tivac_2_16_00_08/packages/ti/drivers/lib/drivers_tivaware.aem4f
       UARTTiva.oem4f                     2262    116       0      
       GPIOTiva.oem4f                     860     156       153    
       PWMTiva.oem4f                      962     32        24     
       I2CTiva.oem4f                      798     28        0      
       PWMTimerTiva.oem4f                 666     32        0      
       UART.oem4f                         128     36        4      
       RingBuf.oem4f                      164     0         0      
       I2C.oem4f                          130     16        4      
       PWM.oem4f                          130     12        4      
    +--+----------------------------------+-------+---------+---------+
       Total:                             6100    428       189    
                                                                   
    C:/ti/tivaware_c_series_2_1_4_178/grlib/ccs/Debug/grlib.lib
       fontcm20.obj                       0       2598      0      
       fontcmss20.obj                     0       2441      0      
       fontcmss18b.obj                    0       2122      0      
       fontcm16.obj                       0       2081      0      
       image.obj                          1658    0         32     
       fontcmss12b.obj                    0       1679      0      
       fontcmss12.obj                     0       1500      0      
       string.obj                         1378    0         0      
       slider.obj                         1232    0         0      
       widget.obj                         814     0         365    
       pushbutton.obj                     668     0         0      
       line.obj                           640     0         0      
       canvas.obj                         420     0         0      
       rectangle.obj                      420     0         0      
       context.obj                        206     16        4      
       charmap.obj                        8       0         0      
    +--+----------------------------------+-------+---------+---------+
       Total:                             7444    12437     401    
                                                                   
    C:\Users\akank\Documents\GitHub\EmbeddedSystemsVehicleMotorSystem\EGH456MotorProject\src\sysbios\sysbios.aem4f
       BIOS.obj                           16218   0         0      
       m3_Hwi_asm.obj                     314     0         0      
       m3_TaskSupport_asm.obj             180     0         0      
       m3_Hwi_asm_switch.obj              118     0         0      
    +--+----------------------------------+-------+---------+---------+
       Total:                             16830   0         0      
                                                                   
    C:\ti\ccs1110\ccs\tools\compiler\ti-cgt-arm_20.2.5.LTS\lib\rtsv7M4_T_le_v4SPD16_eabi.lib
       _printfi.c.obj                     4851    0         0      
       s_exp2.c.obj                       512     4096      0      
       fd_add_t2.asm.obj                  438     0         0      
       trgmsg.c.obj                       108     0         288    
       fd_div_t2.asm.obj                  310     0         0      
       s_scalbn.c.obj                     272     0         0      
       fd_cmp_t2.asm.obj                  268     0         0      
       ctype.c.obj                        0       257       0      
       fd_mul_t2.asm.obj                  252     0         0      
       s_floor.c.obj                      248     0         0      
       memcpy_t2.asm.obj                  156     0         0      
       ull_div_t2.asm.obj                 150     0         0      
       memset_t2.asm.obj                  122     0         0      
       copy_decompress_lzss.c.obj         104     0         0      
       s_frexp.c.obj                      100     0         0      
       sprintf.c.obj                      98      0         0      
       hostwrite.c.obj                    88      0         0      
       _ltoa.c.obj                        84      0         0      
       atoi.c.obj                         76      0         0      
       cpy_tbl.c.obj                      76      0         0      
       fd_toi_t2.asm.obj                  72      0         0      
       u_divt2.asm.obj                    64      0         0      
       i_tofd_t2.asm.obj                  46      0         0      
       _lock.c.obj                        26      0         8      
       u_tofd_t2.asm.obj                  32      0         0      
       memccpy.c.obj                      28      0         0      
       s_copysign.c.obj                   26      0         0      
       args_main.c.obj                    24      0         0      
       strchr.c.obj                       22      0         0      
       strlen.c.obj                       20      0         0      
       wcslen.c.obj                       18      0         0      
       copy_decompress_none.c.obj         14      0         0      
       copy_zero_init.c.obj               12      0         0      
       errno.c.obj                        8       0         4      
       hostopen.c.obj                     0       0         8      
       exit.c.obj                         4       0         0      
       stkdepth_vars.c.obj                0       0         4      
       div0.asm.obj                       2       0         0      
    +--+----------------------------------+-------+---------+---------+
       Total:                             8731    4353      312    
                                                                   
    C:\ti\tirtos_tivac_2_16_00_08\products\bios_6_45_01_29\packages\ti\catalog\arm\cortexm4\tiva\ce\lib\Boot.aem4f
       Boot_sysctl.oem4f                  628     452       0      
       Boot.oem4f                         152     0         0      
    +--+----------------------------------+-------+---------+---------+
       Total:                             780     452       0      
                                                                   
    C:\ti\tirtos_tivac_2_16_00_08\products\bios_6_45_01_29\packages\ti\targets\arm\rtsarm\lib\auto_init.aem4f
       auto_init.oem4f                    160     0         0      
    +--+----------------------------------+-------+---------+---------+
       Total:                             160     0         0      
                                                                   
    C:\ti\tirtos_tivac_2_16_00_08\products\bios_6_45_01_29\packages\ti\targets\arm\rtsarm\lib\boot.aem4f
       boot.oem4f                         88      0         0      
    +--+----------------------------------+-------+---------+---------+
       Total:                             88      0         0      
                                                                   
    C:\ti\tirtos_tivac_2_16_00_08\products\bios_6_45_01_29\packages\ti\targets\arm\rtsarm\lib\ti.targets.arm.rtsarm.aem4f
       System.oem4f                       1255    0         0      
       Text.oem4f                         672     0         0      
       Error.oem4f                        524     0         0      
       Core-mem.oem4f                     358     0         0      
       Startup.oem4f                      328     0         0      
       SysMin.oem4f                       248     0         0      
       Core-smem.oem4f                    204     0         0      
       Memory.oem4f                       176     0         0      
       Assert.oem4f                       84      0         0      
       Core-params.oem4f                  70      0         0      
       Core-label.oem4f                   52      0         0      
       Registry.oem4f                     32      0         0      
       Gate.oem4f                         28      0         0      
    +--+----------------------------------+-------+---------+---------+
       Total:                             4031    0         0      
                                                                   
       Stack:                             0       0         1024   
       Linker Generated:                  0       1110      0      
    +--+----------------------------------+-------+---------+---------+
       Grand Total:                       67927   34633     24322  


LINKER GENERATED COPY TABLES

__TI_cinit_table @ 00019150 records: 3, size/record: 8, table size: 24
	.data: load addr=00018d10, load size=00000422 bytes, run addr=20004ea0, run size=00000d08 bytes, compression=lzss
	.bss: load addr=00019140, load size=00000008 bytes, run addr=20000400, run size=00004a9c bytes, compression=zero_init
	.vecs: load addr=00019148, load size=00000008 bytes, run addr=20000000, run size=00000360 bytes, compression=zero_init


LINKER GENERATED HANDLER TABLE

__TI_handler_table @ 00019134 records: 3, size/record: 4, table size: 12
	index: 0, handler: __TI_decompress_lzss
	index: 1, handler: __TI_decompress_none
	index: 2, handler: __TI_zero_init


GLOBAL SYMBOLS: SORTED ALPHABETICALLY BY Name 

address   name                                                                 
-------   ----                                                                 
00010489  ADCIntEnable                                                         
0000e729  ADCSequenceConfigure                                                 
00010649  ADCSequenceEnable                                                    
0000b98d  ADCSequenceStepConfigure                                             
20004e28  AccBox                                                               
2000507c  AccDownBtn                                                           
200050cc  AccUpBtn                                                             
20004160  AccelData                                                            
20005942  AccelGraph                                                           
20005978  AccelSecond                                                          
20005b68  AccelStop                                                            
0000bbed  ArrayUpdate                                                          
0000f6fd  BackGraphSelect                                                      
0000f721  BackMainGraph                                                        
0000c42d  BackMainMotorPage                                                    
20004e30  Banner                                                               
20004e38  BannerB                                                              
00007fc5  BannerInit                                                           
0000798d  C$$EXIT                                                              
0000eb07  C$$IO$$                                                              
0000bff1  CalcAvg                                                              
0000e7a5  CalcNoRemainder                                                      
000101a3  CanvasMsgProc                                                        
00010499  ChangeAccelDown                                                      
000104a9  ChangeAccelUp                                                        
20004e40  CurrBox                                                              
20005aac  CurrentAcceleration                                                  
2000511c  CurrentDownBtn                                                       
20005aa8  CurrentMotorStat                                                     
2000516c  CurrentUpBtn                                                         
200051bc  DistDownBtn                                                          
2000520c  DistUpBtn                                                            
20004e48  Distbox                                                              
00010937  EK_TM4C1294XL_initGPIO                                               
0000a065  EK_TM4C1294XL_initGeneral                                            
0000aa0d  EK_TM4C1294XL_initI2C                                                
0000f32d  EK_TM4C1294XL_initUART                                               
20005b6c  EStop                                                                
20004a1c  EstopEvent                                                           
0000ff31  EstopPower                                                           
000104b9  FPUEnable                                                            
000104c9  FPULazyStackingEnable                                                
20005988  FilteredAccelPos                                                     
0000f569  GPIODirModeSet                                                       
00007e8b  GPIOIntClear                                                         
000106cf  GPIOIntEnable                                                        
00010657  GPIOIntStatus                                                        
0000d529  GPIOIntTypeSet                                                       
000080f5  GPIOPadConfigSet                                                     
0000de49  GPIOPinConfigure                                                     
0000a773  GPIOPinRead                                                          
000102d1  GPIOPinTypeEthernetLED                                               
000102e3  GPIOPinTypeGPIOInput                                                 
0000ff49  GPIOPinTypeGPIOOutput                                                
000102f5  GPIOPinTypeI2C                                                       
00010307  GPIOPinTypeI2CSCL                                                    
00010319  GPIOPinTypePWM                                                       
0001032b  GPIOPinTypeSSI                                                       
0001033d  GPIOPinTypeTimer                                                     
0001034f  GPIOPinTypeUART                                                      
00010361  GPIOPinTypeUSBAnalog                                                 
00010373  GPIOPinTypeUSBDigital                                                
0000aedb  GPIOPinWrite                                                         
00018a24  GPIOTiva_config                                                      
0000eedd  GPIO_enableInt                                                       
0000c8a1  GPIO_hwiIntFxn                                                       
0000b0a5  GPIO_init                                                            
0000ef0d  GPIO_read                                                            
0000d879  GPIO_setCallback                                                     
000076f1  GPIO_setConfig                                                       
0000d8c9  GPIO_write                                                           
0000e275  GetCurrentSpeed                                                      
0000c76d  GrContextClipRegionSet                                               
0001043b  GrContextFontSet                                                     
0000c495  GrContextInit                                                        
00009e29  GrDefaultStringRenderer                                              
0000f359  GrFontBaselineGet                                                    
0000fba9  GrFontCodepageGet                                                    
0000f8f9  GrFontGlyphDataGet                                                   
000044d5  GrFontGlyphRender                                                    
0000f385  GrFontHeightGet                                                      
0000f689  GrFontInfoGet                                                        
00010665  GrImageDraw                                                          
00008ab1  GrLineDraw                                                           
0000e0d1  GrLineDrawH                                                          
0000e117  GrLineDrawV                                                          
0001093f  GrMapISO8859_1_Unicode                                               
0000c7d3  GrRectDraw                                                           
0000b3e9  GrRectFill                                                           
0000b811  GrRectIntersectGet                                                   
0000e989  GrRectOverlapCheck                                                   
000100b1  GrStringDraw                                                         
0000f2d1  GrStringNextCharGet                                                  
0000c4fd  GrStringWidthGet                                                     
0000b57d  GraphPageAccel                                                       
0000b601  GraphPageLight                                                       
2000525c  GraphPgBtn                                                           
00001eed  GraphPrimitive                                                       
20005a9d  HA                                                                   
0000c05d  HAllF                                                                
20005a9e  HB                                                                   
20005a9f  HC                                                                   
0000d2c1  HOSTwrite                                                            
20005998  Hall_changed                                                         
00003ffd  I2CMasterControl                                                     
00004bad  I2CMasterDataGet                                                     
000055d5  I2CMasterDataPut                                                     
0001088d  I2CMasterDisable                                                     
00010897  I2CMasterEnable                                                      
000100c7  I2CMasterErr                                                         
0000de91  I2CMasterInitExpClk                                                  
00010947  I2CMasterIntClear                                                    
000106ab  I2CMasterIntDisable                                                  
000109b1  I2CMasterIntEnable                                                   
0001094f  I2CMasterSlaveAddrSet                                                
0000ec27  I2CTiva_close                                                        
000109b7  I2CTiva_control                                                      
0001892c  I2CTiva_fxnTable                                                     
000108a1  I2CTiva_init                                                         
00009925  I2CTiva_open                                                         
0000b891  I2CTiva_transfer                                                     
000104d9  I2C_Params_init                                                      
0001849c  I2C_config                                                           
00018a4c  I2C_defaultParams                                                    
0000e9c1  I2C_init                                                             
0000ef3d  I2C_open                                                             
000108ab  I2C_transfer                                                         
0000bc65  InitScreen                                                           
0000e569  InitsingleBuffer                                                     
0000c565  IntEnable                                                            
000059b5  Kentec320x240x16_SSD2119Init                                         
200042f0  LightData                                                            
20005941  LightGraph                                                           
200052ac  LightGraphBtn                                                        
20005970  LightSecond                                                          
20005aa0  LowLight                                                             
00009a05  MainPage                                                             
20005b78  MaxAccel                                                             
200052fc  MotorGraphBtn                                                        
0000d4d1  MotorInit                                                            
000091a1  MotorMain                                                            
2000534c  MotorMode                                                            
00001b51  MotorPage                                                            
2000539c  MotorPgBtn                                                           
20005020  MotorSpeedSlider                                                     
20005943  OnSensorPage                                                         
000101e1  PWMClockSet                                                          
0000f91b  PWMGenConfigure                                                      
000106db  PWMGenDisable                                                        
000106e7  PWMGenEnable                                                         
00010385  PWMGenPeriodGet                                                      
000104e9  PWMGenPeriodSet                                                      
00010397  PWMOutputInvert                                                      
000103a9  PWMOutputState                                                       
0000fbc7  PWMPulseWidthSet                                                     
0001876a  PWMTimerTiva_MAX_MATCH_VALUE                                         
00018768  PWMTimerTiva_MAX_PRESCALAR_VALUE                                     
0000ddb5  PWMTimerTiva_close                                                   
0000c0c9  PWMTimerTiva_control                                                 
0001874c  PWMTimerTiva_fxnTable                                                
000108bf  PWMTimerTiva_getPeriodCounts                                         
000109bd  PWMTimerTiva_getPeriodMicroSecs                                      
0001095f  PWMTimerTiva_init                                                    
00008461  PWMTimerTiva_open                                                    
0000a28d  PWMTimerTiva_setDuty                                                 
0001878a  PWMTiva_MAX_MATCH_VALUE                                              
00018788  PWMTiva_MAX_PRESCALAR                                                
0000c3c1  PWMTiva_close                                                        
0000b361  PWMTiva_control                                                      
0001876c  PWMTiva_fxnTable                                                     
0000f93d  PWMTiva_getPeriodCounts                                              
0000fbe5  PWMTiva_getPeriodMicroSecs                                           
0000ef6d  PWMTiva_init                                                         
000072bd  PWMTiva_open                                                         
0000956f  PWMTiva_setDuty                                                      
000104f9  PWM_Params_init                                                      
00018240  PWM_config                                                           
00018a7c  PWM_defaultParams                                                    
0000e9f9  PWM_init                                                             
0000ef9d  PWM_open                                                             
000108c9  PWM_setDuty                                                          
00006659  PinoutSet                                                            
20005b6a  PowerEstop                                                           
200053ec  PowerGraphBtn                                                        
0000f3b1  RectangularButtonMsgProc                                             
0000113d  RegulateSpeed                                                        
0000f745  RemoveGraph                                                          
0000ea31  RemoveGraphSelect                                                    
0000f769  RemoveMainPage                                                       
000103bb  RingBuf_construct                                                    
0000e5a9  RingBuf_get                                                          
000106f3  RingBuf_peek                                                         
0000e1a3  RingBuf_put                                                          
UNDEFED   SHT$$INIT_ARRAY$$Base                                                
UNDEFED   SHT$$INIT_ARRAY$$Limit                                               
00010967  SSIBusy                                                              
0000e7e1  SSIConfigSetExpClk                                                   
000103cd  SSIDataGetNonBlocking                                                
000108d3  SSIDataPut                                                           
000108dd  SSIEnable                                                            
20004cf4  ScreenGate                                                           
00002281  SensorPage                                                           
2000543c  SensorPgBtn                                                          
20004a20  Sensor_Filtered_Buffer                                               
0000f3dd  SliderMsgProc                                                        
20004e68  SwiHandle                                                            
000109c3  SysCtlDelay                                                          
000101f5  SysCtlPWMClockSet                                                    
0000ec95  SysCtlPeripheralEnable                                               
0000ea69  SysCtlPeripheralReady                                                
2000548c  TestGraphBtn                                                         
0000cc89  TimerConfigure                                                       
0000ff61  TimerControlLevel                                                    
0000d371  TimerControlTrigger                                                  
00010209  TimerDisable                                                         
00010673  TimerEnable                                                          
000103df  TimerLoadSet                                                         
000103f1  TimerMatchSet                                                        
00010403  TimerPrescaleMatchSet                                                
00010415  TimerPrescaleSet                                                     
00003aed  TopBarDraw                                                           
000106ff  TouchCheckTask                                                       
0001021d  TouchScreenCallbackSet                                               
00008791  TouchScreenInit                                                      
00006fd1  TouchScreenIntHandler                                                
000108e7  UARTCharGet                                                          
00010681  UARTCharGetNonBlocking                                               
000108f1  UARTCharPut                                                          
0001068f  UARTCharPutNonBlocking                                               
0000e4a1  UARTConfigSetExpClk                                                  
0000fc5d  UARTDisable                                                          
00010231  UARTEnable                                                           
000109c9  UARTFIFOLevelSet                                                     
0001070b  UARTFlowControlSet                                                   
000067fd  UARTIntClear                                                         
000108fb  UARTIntDisable                                                       
0001096f  UARTIntEnable                                                        
00010905  UARTIntStatus                                                        
000109cf  UARTRxErrorClear                                                     
00010977  UARTRxErrorGet                                                       
0000daa9  UARTTiva_close                                                       
0000b131  UARTTiva_control                                                     
0001858c  UARTTiva_fxnTable                                                    
00010717  UARTTiva_init                                                        
00004dcd  UARTTiva_open                                                        
0000e5e9  UARTTiva_read                                                        
0000ec5d  UARTTiva_readCancel                                                  
0000ac7f  UARTTiva_readPolling                                                 
0000ae47  UARTTiva_write                                                       
0000d919  UARTTiva_writeCancel                                                 
0000e525  UARTTiva_writePolling                                                
0000ff79  UART_Params_init                                                     
00018964  UART_config                                                          
0001862c  UART_defaultParams                                                   
0000eaa1  UART_init                                                            
0000efcd  UART_open                                                            
0000bafd  UpdateAccelGraph                                                     
000069a1  UpdateGraphPlot                                                      
0000bb75  UpdateLightGraph                                                     
0000fc03  WidgetAdd                                                            
0000742d  WidgetDefaultMsgProc                                                 
0000983d  WidgetMessageQueueAdd                                                
0000c905  WidgetMessageQueueProcess                                            
0000a345  WidgetMessageSendPostOrder                                           
0000cda9  WidgetMessageSendPreOrder                                            
00010245  WidgetMutexGet                                                       
000109d5  WidgetMutexPut                                                       
0000fc79  WidgetPointerMessage                                                 
0000daf5  WidgetRemove                                                         
00000000  __ASM__                                                              
20004740  __CIOBUF_                                                            
0000008b  __ISA__                                                              
0000009e  __PLAT__                                                             
20005fa8  __STACK_END                                                          
00000400  __STACK_SIZE                                                         
000000bf  __TARG__                                                             
00019150  __TI_CINIT_Base                                                      
00019168  __TI_CINIT_Limit                                                     
00019134  __TI_Handler_Table_Base                                              
00019140  __TI_Handler_Table_Limit                                             
0000a8cd  __TI_auto_init                                                       
0000c69d  __TI_decompress_lzss                                                 
0001069d  __TI_decompress_none                                                 
0000d5d5  __TI_ltoa                                                            
ffffffff  __TI_pprof_out_hndl                                                  
00000041  __TI_printfi                                                         
ffffffff  __TI_prof_data_size                                                  
ffffffff  __TI_prof_data_start                                                 
0000ecc9  __TI_readmsg                                                         
00018d10  __TI_static_base__                                                   
0000ead9  __TI_writemsg                                                        
00010749  __TI_zero_init                                                       
000000e5  __TRDR__                                                             
0000b46f  __aeabi_cdcmpeq                                                      
0000b46f  __aeabi_cdcmple                                                      
0000b4f5  __aeabi_cdrcmple                                                     
0000ded9  __aeabi_d2iz                                                         
000064ab  __aeabi_dadd                                                         
00007d55  __aeabi_ddiv                                                         
00008dbd  __aeabi_dmul                                                         
000064a1  __aeabi_dsub                                                         
00010981  __aeabi_errno_addr                                                   
0000f2ff  __aeabi_i2d                                                          
00003597  __aeabi_idiv0                                                        
00003597  __aeabi_ldiv0                                                        
0000ba81  __aeabi_memclr                                                       
0000ba81  __aeabi_memclr4                                                      
0000ba81  __aeabi_memclr8                                                      
0000aaa9  __aeabi_memcpy                                                       
0000aaa9  __aeabi_memcpy4                                                      
0000aaa9  __aeabi_memcpy8                                                      
0000ba83  __aeabi_memset                                                       
0000ba83  __aeabi_memset4                                                      
0000ba83  __aeabi_memset8                                                      
0000f9e5  __aeabi_ui2d                                                         
0000e629  __aeabi_uidiv                                                        
0000e629  __aeabi_uidivmod                                                     
0000adb1  __aeabi_uldivmod                                                     
ffffffff  __binit__                                                            
ffffffff  __c_args__                                                           
20005ba8  __stack                                                              
20000000  __start___llvm_prf_cnts                                              
20000000  __stop___llvm_prf_cnts                                               
0000ff91  _args_main                                                           
0000d269  _c_int00                                                             
000177a7  _ctypes_                                                             
20005ac8  _lock                                                                
00000a8f  _nop                                                                 
00010725  _register_lock                                                       
00010731  _register_unlock                                                     
20005acc  _unlock                                                              
0000798d  abort                                                                
00007595  accelSensorFilterFxn                                                 
0000db41  atoi                                                                 
200054dc  backGraphBtn                                                         
2000552c  backGraphSelectBtn                                                   
0000f78d  backMainSensor                                                       
2000557c  backMotorBtn                                                         
200055cc  backSensorBtn                                                        
ffffffff  binit                                                                
20004860  bmi160_accel_values                                                  
0000f593  bmi160_delay                                                         
20005990  bmi160_filteredValue                                                 
0000ce07  bmi160_getAccel                                                      
0000965f  bmi160_init                                                          
0000ecfd  bmi160_readConvert                                                   
0001073d  btntest                                                              
0000e81d  checkEstop                                                           
20004e50  clearBox                                                             
0000f435  clk0Fxn                                                              
20004d20  clk0Struct                                                           
0000db8d  copy_in                                                              
0000fe2d  copysign                                                             
0000fe2d  copysignl                                                            
20005aa4  currentDirection                                                     
200059ac  current_speed                                                        
200059b0  current_speed_estop                                                  
20004da4  datetime                                                             
2000599c  desired_speed                                                        
00000d07  disableMotor                                                         
00000cf9  enableMotor                                                          
20005b88  errno                                                                
200059a8  error_sum                                                            
200059a0  estop                                                                
20004dec  evtStruct                                                            
000051dd  exp2                                                                 
000051dd  exp2l                                                                
00008eb9  floor                                                                
00008eb9  floorl                                                               
0000c969  frexp                                                                
0000c969  frexpl                                                               
20004dbc  gHwiprms                                                             
200056f4  g_Acceleration                                                       
20005734  g_MotorStat                                                          
20005ba0  g_i16TouchMin                                                        
20004e98  g_i16TouchX                                                          
20004e9a  g_i16TouchY                                                          
20004e6c  g_pi32ParmSet                                                        
00018948  g_pi32TouchParameters                                                
00018a5c  g_psDefaultCodePointMapTable                                         
00016d4b  g_pui8CompE                                                          
00016ec3  g_pui8CompN                                                          
000165e4  g_pui8CompS                                                          
0001675f  g_pui8CompW                                                          
000178a8  g_pui8Day                                                            
0001719e  g_pui8Go                                                             
00015f7d  g_pui8Logo                                                           
0001745b  g_pui8Night                                                          
0001703b  g_pui8Stop                                                           
000168da  g_pui8accSlow                                                        
00016a55  g_pui8accfast                                                        
00016bd0  g_pui8accmid                                                         
00017f2c  g_pui8arrowLeft                                                      
000176a0  g_pui8arrowRight                                                     
000180ee  g_pui8backBtn                                                        
000161ca  g_pui8btn140x40                                                      
000163d7  g_pui8btn150x40Press                                                 
000172fe  g_pui8idle                                                           
20005774  g_sCanvas2                                                           
200057b4  g_sCanvas3                                                           
00017a7c  g_sFontCm16                                                          
00017b44  g_sFontCm20                                                          
00017c0c  g_sFontCmss12                                                        
00017cd4  g_sFontCmss12b                                                       
00017d9c  g_sFontCmss18b                                                       
00017e64  g_sFontCmss20                                                        
000185b4  g_sKentec320x240x16_SSD2119                                          
20005914  g_sRoot                                                              
200057f4  g_scompass                                                           
20004e74  g_ui32Panel                                                          
20004e78  gateHwi                                                              
00000de5  getMotorLibPWMPeriod                                                 
20005ad0  gpioCallbackFunctions                                                
20005a00  gpioPinConfigs                                                       
20004e58  graphClear                                                           
00009295  graphSelectPage                                                      
00006ccd  heartBeatFxn                                                         
20004e80  i2c                                                                  
20004e10  i2cParams                                                            
00018650  i2cTivaHWAttrs                                                       
20004480  i2cTivaObjects                                                       
0000d629  i2c_Open                                                             
0000f9c5  initEstop                                                            
0000fcb1  initGraphBuffers                                                     
00000e39  initMotorLib                                                         
00000d19  initMotorLibPWM                                                      
0000e1e9  initUART                                                             
00008575  ldexp                                                                
00008575  ldexpl                                                               
0000bd4d  lightSensorFilterFxn                                                 
000057cd  main                                                                 
20005b8c  main_func_sp                                                         
0000cf21  max_element                                                          
0000fccd  memccpy                                                              
0000aaa9  memcpy                                                               
0000ba89  memset                                                               
0000c9cd  min_element                                                          
20004c90  motorLibPWMObjects                                                   
20004dd4  motorLibPWMTimerObjects                                              
00018a6c  motorLibPWMTimerTivaHWAttrs                                          
000182f4  motorLibPWMTivaHWAttrs                                               
20005a9c  motorStartStop                                                       
20005aa1  ongraph                                                              
0000c705  opt3001_convert                                                      
20005980  opt3001_filteredValue                                                
0000b70d  opt3001_init                                                         
20004cf8  opt3001_light_values                                                 
0000bdbd  opt3001_read                                                         
000105d9  osi_TaskDisable                                                      
00010539  osi_start                                                            
20004e60  parmbuf                                                              
20004e84  postedStop                                                           
200059b4  previous_speed                                                       
200059b8  previous_speed_estop                                                 
20003400  psDMAControlTable                                                    
200059a4  pwm_current                                                          
00007841  readAccFxn                                                           
20001400  readAccelStack                                                       
20004b50  readAccelStruct                                                      
0000dbd9  readI2C                                                              
20001c00  readLightStack                                                       
20004ba0  readLightStruct                                                      
00005d75  readOptFxn                                                           
0000f461  removeSensorPage                                                     
20004cc8  sContext                                                             
00008575  scalbn                                                               
00008575  scalbnl                                                              
00000a91  setDuty                                                              
0000e669  sprintf                                                              
00000c9f  stopMotor                                                            
000100dd  strchr                                                               
00010259  strlen                                                               
20004e88  swiAccelSensorFilterHandle                                           
20004e8c  swiLightSensorFilterHandle                                           
20002400  task0Stack                                                           
20004bf0  task0Struct                                                          
20002c00  taskTouchStack                                                       
20004c40  taskTouchStruct                                                      
00018ab0  ti_catalog_arm_cortexm4_tiva_ce_Boot_A_mustNotUseEnhancedClockMode__C
00018ab4  ti_catalog_arm_cortexm4_tiva_ce_Boot_Module__diagsEnabled__C         
00018ab8  ti_catalog_arm_cortexm4_tiva_ce_Boot_Module__diagsIncluded__C        
00018abc  ti_catalog_arm_cortexm4_tiva_ce_Boot_Module__diagsMask__C            
00017fd2  ti_catalog_arm_cortexm4_tiva_ce_Boot_Module__id__C                   
00010479  ti_catalog_arm_cortexm4_tiva_ce_Boot_init__I                         
00004fd9  ti_catalog_arm_cortexm4_tiva_ce_Boot_sysCtlClockFreqSetI__I          
0000ad19  ti_catalog_arm_cortexm4_tiva_ce_Boot_sysCtlClockFreqSet__E           
200059bc  ti_sysbios_BIOS_Module__state__V                                     
0000fe7b  ti_sysbios_BIOS_RtsGateProxy_Handle__label__S                        
0000f841  ti_sysbios_BIOS_RtsGateProxy_Object__delete__S                       
000107d5  ti_sysbios_BIOS_RtsGateProxy_Params__init__S                         
00007c15  ti_sysbios_BIOS_RtsGateProxy_enter__E                                
0000889d  ti_sysbios_BIOS_RtsGateProxy_leave__E                                
00010a31  ti_sysbios_BIOS_RtsGateProxy_query__E                                
0000effd  ti_sysbios_BIOS_atExitFunc__I                                        
0000f7b1  ti_sysbios_BIOS_errorRaiseHook__I                                    
000100f3  ti_sysbios_BIOS_exitFunc__I                                          
00010519  ti_sysbios_BIOS_getCpuFreq__E                                        
00006657  ti_sysbios_BIOS_nullFunc__I                                          
0000f7d5  ti_sysbios_BIOS_registerRTSLock__I                                   
0000f7f9  ti_sysbios_BIOS_removeRTSLock__I                                     
0000fa05  ti_sysbios_BIOS_rtsLock__I                                           
0000ffc1  ti_sysbios_BIOS_rtsUnlock__I                                         
00010529  ti_sysbios_BIOS_setThreadType__E                                     
0000f81d  ti_sysbios_BIOS_startFunc__I                                         
00010539  ti_sysbios_BIOS_start__E                                             
00018ac0  ti_sysbios_family_arm_lm4_Timer_E_cannotSupport__C                   
00018ac4  ti_sysbios_family_arm_lm4_Timer_E_invalidTimer__C                    
00018ac8  ti_sysbios_family_arm_lm4_Timer_E_noaltclk__C                        
00018acc  ti_sysbios_family_arm_lm4_Timer_E_notAvailable__C                    
0000d3c9  ti_sysbios_family_arm_lm4_Timer_Instance_finalize__E                 
00004bb1  ti_sysbios_family_arm_lm4_Timer_Instance_init__E                     
20005834  ti_sysbios_family_arm_lm4_Timer_Module_State_0_device__A             
200059e0  ti_sysbios_family_arm_lm4_Timer_Module_State_0_handles__A            
00018ce4  ti_sysbios_family_arm_lm4_Timer_Module__id__C                        
20005ad8  ti_sysbios_family_arm_lm4_Timer_Module__root__V                      
0000ffd9  ti_sysbios_family_arm_lm4_Timer_Module__startupDone__F               
0000ffd9  ti_sysbios_family_arm_lm4_Timer_Module__startupDone__S               
20005ab0  ti_sysbios_family_arm_lm4_Timer_Module__state__V                     
0000ca31  ti_sysbios_family_arm_lm4_Timer_Module_startup__E                    
0001878c  ti_sysbios_family_arm_lm4_Timer_Object__DESC__C                      
00018424  ti_sysbios_family_arm_lm4_Timer_Object__PARAMS__C                    
0000c135  ti_sysbios_family_arm_lm4_Timer_Object__create__S                    
0000fa25  ti_sysbios_family_arm_lm4_Timer_Object__delete__S                    
20004ea0  ti_sysbios_family_arm_lm4_Timer_Object__table__V                     
00018ad0  ti_sysbios_family_arm_lm4_Timer_anyMask__C                           
00018ad4  ti_sysbios_family_arm_lm4_Timer_disableFunc__C                       
0000b911  ti_sysbios_family_arm_lm4_Timer_disableTiva__I                       
00018ad8  ti_sysbios_family_arm_lm4_Timer_enableFunc__C                        
0000df21  ti_sysbios_family_arm_lm4_Timer_enableTimers__I                      
0000a779  ti_sysbios_family_arm_lm4_Timer_enableTiva__I                        
00010759  ti_sysbios_family_arm_lm4_Timer_getAvailMask__E                      
0000fa49  ti_sysbios_family_arm_lm4_Timer_getFreq__E                           
00010769  ti_sysbios_family_arm_lm4_Timer_getMaxTicks__E                       
00010a21  ti_sysbios_family_arm_lm4_Timer_getPeriod__E                         
0000d6d1  ti_sysbios_family_arm_lm4_Timer_initDevice__I                        
0000e2b9  ti_sysbios_family_arm_lm4_Timer_isrStub__E                           
00010991  ti_sysbios_family_arm_lm4_Timer_masterDisable__I                     
00009fa5  ti_sysbios_family_arm_lm4_Timer_masterEnable__I                      
00018adc  ti_sysbios_family_arm_lm4_Timer_numTimerDevices__C                   
0000dc29  ti_sysbios_family_arm_lm4_Timer_setAvailMask__E                      
0000ed31  ti_sysbios_family_arm_lm4_Timer_setPeriodMicroSecs__E                
000088a1  ti_sysbios_family_arm_lm4_Timer_start__E                             
00018ae0  ti_sysbios_family_arm_lm4_Timer_startupNeeded__C                     
0000e6a9  ti_sysbios_family_arm_lm4_Timer_startup__E                           
0000f031  ti_sysbios_family_arm_lm4_Timer_stop__E                              
00018ce6  ti_sysbios_family_arm_lm4_Timer_supportsAltclk__C                    
0000f961  ti_sysbios_family_arm_lm4_Timer_write__I                             
20005ae0  ti_sysbios_family_arm_lm4_TimestampProvider_Module__state__V         
000109e1  ti_sysbios_family_arm_lm4_TimestampProvider_Module_startup__E        
00010519  ti_sysbios_family_arm_lm4_TimestampProvider_getFreq__E               
00010549  ti_sysbios_family_arm_lm4_TimestampProvider_rolloverFunc__E          
00010779  ti_sysbios_family_arm_lm4_TimestampProvider_startTimer__E            
00018ae4  ti_sysbios_family_arm_m3_Hwi_E_NMI__C                                
00018ae8  ti_sysbios_family_arm_m3_Hwi_E_alreadyDefined__C                     
00018aec  ti_sysbios_family_arm_m3_Hwi_E_busFault__C                           
00018af0  ti_sysbios_family_arm_m3_Hwi_E_debugMon__C                           
00018af4  ti_sysbios_family_arm_m3_Hwi_E_hardFault__C                          
00018af8  ti_sysbios_family_arm_m3_Hwi_E_memFault__C                           
00018afc  ti_sysbios_family_arm_m3_Hwi_E_noIsr__C                              
00018b00  ti_sysbios_family_arm_m3_Hwi_E_reserved__C                           
00018b04  ti_sysbios_family_arm_m3_Hwi_E_svCall__C                             
00018b08  ti_sysbios_family_arm_m3_Hwi_E_usageFault__C                         
0000fe47  ti_sysbios_family_arm_m3_Hwi_Handle__label__S                        
0000ed69  ti_sysbios_family_arm_m3_Hwi_Instance_finalize__E                    
0000aee1  ti_sysbios_family_arm_m3_Hwi_Instance_init__E                        
20005b6e  ti_sysbios_family_arm_m3_Hwi_Module_State_0_excActive__A             
20005b90  ti_sysbios_family_arm_m3_Hwi_Module_State_0_excContext__A            
20005b94  ti_sysbios_family_arm_m3_Hwi_Module_State_0_excStack__A              
00018ce8  ti_sysbios_family_arm_m3_Hwi_Module__id__C                           
20005ae8  ti_sysbios_family_arm_m3_Hwi_Module__root__V                         
0000fff1  ti_sysbios_family_arm_m3_Hwi_Module__startupDone__F                  
0000fff1  ti_sysbios_family_arm_m3_Hwi_Module__startupDone__S                  
200058b0  ti_sysbios_family_arm_m3_Hwi_Module__state__V                        
0000d9b9  ti_sysbios_family_arm_m3_Hwi_Module_startup__E                       
00018b0c  ti_sysbios_family_arm_m3_Hwi_NUM_INTERRUPTS__C                       
000187ac  ti_sysbios_family_arm_m3_Hwi_Object__DESC__C                         
000184fc  ti_sysbios_family_arm_m3_Hwi_Object__PARAMS__C                       
00018b10  ti_sysbios_family_arm_m3_Hwi_Object__count__C                        
0000fa69  ti_sysbios_family_arm_m3_Hwi_Object__delete__S                       
0000fce9  ti_sysbios_family_arm_m3_Hwi_Object__destruct__S                     
0001026d  ti_sysbios_family_arm_m3_Hwi_Object__get__S                          
20005668  ti_sysbios_family_arm_m3_Hwi_Object__table__V                        
00010785  ti_sysbios_family_arm_m3_Hwi_Params__init__S                         
00018b14  ti_sysbios_family_arm_m3_Hwi_ccr__C                                  
0000d421  ti_sysbios_family_arm_m3_Hwi_construct                               
0000ca95  ti_sysbios_family_arm_m3_Hwi_create                                  
0000a4ad  ti_sysbios_family_arm_m3_Hwi_delete                                  
0000a825  ti_sysbios_family_arm_m3_Hwi_destruct                                
00010791  ti_sysbios_family_arm_m3_Hwi_disableFxn__E                           
0000df69  ti_sysbios_family_arm_m3_Hwi_disableInterrupt__E                     
0000caf9  ti_sysbios_family_arm_m3_Hwi_dispatchC__I                            
20003c00  ti_sysbios_family_arm_m3_Hwi_dispatchTable                           
00009389  ti_sysbios_family_arm_m3_Hwi_dispatch__I                             
00010999  ti_sysbios_family_arm_m3_Hwi_doSwiRestore__I                         
000109e9  ti_sysbios_family_arm_m3_Hwi_doTaskRestore__I                        
0000dfb1  ti_sysbios_family_arm_m3_Hwi_enableInterrupt__E                      
00007149  ti_sysbios_family_arm_m3_Hwi_excBusFault__I                          
00009ee9  ti_sysbios_family_arm_m3_Hwi_excDebugMon__I                          
00001721  ti_sysbios_family_arm_m3_Hwi_excDumpRegs__I                          
0000fa89  ti_sysbios_family_arm_m3_Hwi_excHandlerAsm__I                        
00018b18  ti_sysbios_family_arm_m3_Hwi_excHandlerFunc__C                       
000055d9  ti_sysbios_family_arm_m3_Hwi_excHandlerMax__I                        
0000faa9  ti_sysbios_family_arm_m3_Hwi_excHandler__I                           
00009fa9  ti_sysbios_family_arm_m3_Hwi_excHardFault__I                         
00018a90  ti_sysbios_family_arm_m3_Hwi_excHookFuncs__A                         
00018b1c  ti_sysbios_family_arm_m3_Hwi_excHookFuncs__C                         
00007991  ti_sysbios_family_arm_m3_Hwi_excMemFault__I                          
0000eda1  ti_sysbios_family_arm_m3_Hwi_excNmi__I                               
0000eb11  ti_sysbios_family_arm_m3_Hwi_excNoIsr__I                             
0000dff9  ti_sysbios_family_arm_m3_Hwi_excReserved__I                          
0000e859  ti_sysbios_family_arm_m3_Hwi_excSvCall__I                            
00007431  ti_sysbios_family_arm_m3_Hwi_excUsageFault__I                        
0000e301  ti_sysbios_family_arm_m3_Hwi_getStackInfo__E                         
0000af79  ti_sysbios_family_arm_m3_Hwi_initNVIC__E                             
0000d479  ti_sysbios_family_arm_m3_Hwi_initStacks__E                           
00018b20  ti_sysbios_family_arm_m3_Hwi_nullIsrFunc__C                          
e000e000  ti_sysbios_family_arm_m3_Hwi_nvic                                    
0000f6af  ti_sysbios_family_arm_m3_Hwi_pendSV__I                               
0000b689  ti_sysbios_family_arm_m3_Hwi_postInit__I                             
00018b24  ti_sysbios_family_arm_m3_Hwi_priGroup__C                             
20000000  ti_sysbios_family_arm_m3_Hwi_ramVectors                              
00000000  ti_sysbios_family_arm_m3_Hwi_resetVectors                            
000109f1  ti_sysbios_family_arm_m3_Hwi_restoreFxn__E                           
0000f6d3  ti_sysbios_family_arm_m3_Hwi_return                                  
000109a1  ti_sysbios_family_arm_m3_Hwi_startup__E                              
00010281  ti_sysbios_family_arm_m3_Hwi_switchFromBootStack__E                  
0000ab45  ti_sysbios_family_arm_m3_TaskSupport_Module__startupDone__S          
0000b1bd  ti_sysbios_family_arm_m3_TaskSupport_buildTaskStack                  
000107a1  ti_sysbios_family_arm_m3_TaskSupport_checkStack__E                   
000107b1  ti_sysbios_family_arm_m3_TaskSupport_getStackAlignment__E            
00010559  ti_sysbios_family_arm_m3_TaskSupport_glue                            
00018b28  ti_sysbios_family_arm_m3_TaskSupport_stackAlignment__C               
0000f061  ti_sysbios_family_arm_m3_TaskSupport_start__E                        
00010009  ti_sysbios_family_arm_m3_TaskSupport_swap__E                         
0000fc21  ti_sysbios_family_xxx_Hwi_switchAndRunFunc                           
0000fe61  ti_sysbios_gates_GateHwi_Handle__label__S                            
00010a49  ti_sysbios_gates_GateHwi_Instance_init__E                            
00018674  ti_sysbios_gates_GateHwi_Module__FXNS__C                             
20005af0  ti_sysbios_gates_GateHwi_Module__root__V                             
000187cc  ti_sysbios_gates_GateHwi_Object__DESC__C                             
0001897c  ti_sysbios_gates_GateHwi_Object__PARAMS__C                           
0000f091  ti_sysbios_gates_GateHwi_Object__create__S                           
0000fac9  ti_sysbios_gates_GateHwi_Object__delete__S                           
20005b98  ti_sysbios_gates_GateHwi_Object__table__V                            
000107bd  ti_sysbios_gates_GateHwi_Params__init__S                             
0000f0c1  ti_sysbios_gates_GateHwi_create                                      
000107c9  ti_sysbios_gates_GateHwi_enter__E                                    
000109f9  ti_sysbios_gates_GateHwi_leave__E                                    
00010a29  ti_sysbios_gates_GateHwi_query__E                                    
00018b2c  ti_sysbios_gates_GateMutexPri_A_badContext__C                        
00018b30  ti_sysbios_gates_GateMutexPri_A_enterTaskDisabled__C                 
0000fe7b  ti_sysbios_gates_GateMutexPri_Handle__label__S                       
00018b34  ti_sysbios_gates_GateMutexPri_Instance_State_pendQ__O                
00010569  ti_sysbios_gates_GateMutexPri_Instance_finalize__E                   
0000fd09  ti_sysbios_gates_GateMutexPri_Instance_init__E                       
00018698  ti_sysbios_gates_GateMutexPri_Module__FXNS__C                        
00018b38  ti_sysbios_gates_GateMutexPri_Module__diagsEnabled__C                
00018b3c  ti_sysbios_gates_GateMutexPri_Module__diagsIncluded__C               
00018b40  ti_sysbios_gates_GateMutexPri_Module__diagsMask__C                   
00018cea  ti_sysbios_gates_GateMutexPri_Module__id__C                          
20005af8  ti_sysbios_gates_GateMutexPri_Module__root__V                        
000187ec  ti_sysbios_gates_GateMutexPri_Object__DESC__C                        
00018994  ti_sysbios_gates_GateMutexPri_Object__PARAMS__C                      
0000f0f1  ti_sysbios_gates_GateMutexPri_Object__create__S                      
0000f841  ti_sysbios_gates_GateMutexPri_Object__delete__S                      
20005a6c  ti_sysbios_gates_GateMutexPri_Object__table__V                       
000107d5  ti_sysbios_gates_GateMutexPri_Params__init__S                        
0000f121  ti_sysbios_gates_GateMutexPri_create                                 
00006801  ti_sysbios_gates_GateMutexPri_enter__E                               
0000c1a1  ti_sysbios_gates_GateMutexPri_leave__E                               
00010a31  ti_sysbios_gates_GateMutexPri_query__E                               
00018b44  ti_sysbios_gates_GateMutex_A_badContext__C                           
0000fe95  ti_sysbios_gates_GateMutex_Handle__label__S                          
00018b48  ti_sysbios_gates_GateMutex_Instance_State_sem__O                     
00010579  ti_sysbios_gates_GateMutex_Instance_finalize__E                      
0000fd29  ti_sysbios_gates_GateMutex_Instance_init__E                          
000186bc  ti_sysbios_gates_GateMutex_Module__FXNS__C                           
00018b4c  ti_sysbios_gates_GateMutex_Module__diagsEnabled__C                   
00018b50  ti_sysbios_gates_GateMutex_Module__diagsIncluded__C                  
00018b54  ti_sysbios_gates_GateMutex_Module__diagsMask__C                      
00018cec  ti_sysbios_gates_GateMutex_Module__id__C                             
20005b00  ti_sysbios_gates_GateMutex_Module__root__V                           
0001880c  ti_sysbios_gates_GateMutex_Object__DESC__C                           
000189ac  ti_sysbios_gates_GateMutex_Object__PARAMS__C                         
0000f151  ti_sysbios_gates_GateMutex_Object__create__S                         
0000f865  ti_sysbios_gates_GateMutex_Object__delete__S                         
20005a1c  ti_sysbios_gates_GateMutex_Object__table__V                          
0000a3f9  ti_sysbios_gates_GateMutex_enter__E                                  
00010021  ti_sysbios_gates_GateMutex_leave__E                                  
00010a39  ti_sysbios_gates_GateMutex_query__E                                  
00018b58  ti_sysbios_hal_Hwi_E_stackOverflow__C                                
0000fe47  ti_sysbios_hal_Hwi_HwiProxy_Handle__label__S                         
0000fff1  ti_sysbios_hal_Hwi_HwiProxy_Module__startupDone__S                   
0000fa69  ti_sysbios_hal_Hwi_HwiProxy_Object__delete__S                        
00010785  ti_sysbios_hal_Hwi_HwiProxy_Params__init__S                          
0000df69  ti_sysbios_hal_Hwi_HwiProxy_disableInterrupt__E                      
00010791  ti_sysbios_hal_Hwi_HwiProxy_disable__E                               
0000dfb1  ti_sysbios_hal_Hwi_HwiProxy_enableInterrupt__E                       
0000e301  ti_sysbios_hal_Hwi_HwiProxy_getStackInfo__E                          
000109f1  ti_sysbios_hal_Hwi_HwiProxy_restore__E                               
000109a1  ti_sysbios_hal_Hwi_HwiProxy_startup__E                               
00010281  ti_sysbios_hal_Hwi_HwiProxy_switchFromBootStack__E                   
00018cee  ti_sysbios_hal_Hwi_Module__id__C                                     
00010429  ti_sysbios_hal_Hwi_Module_startup__E                                 
0000edd9  ti_sysbios_hal_Hwi_checkStack                                        
0000df69  ti_sysbios_hal_Hwi_disableInterrupt__E                               
0000dfb1  ti_sysbios_hal_Hwi_enableInterrupt__E                                
0000e301  ti_sysbios_hal_Hwi_getStackInfo__E                                   
0000eea9  ti_sysbios_hal_Hwi_initStack                                         
000109a1  ti_sysbios_hal_Hwi_startup__E                                        
00010281  ti_sysbios_hal_Hwi_switchFromBootStack__E                            
00018b5c  ti_sysbios_hal_SecondsClock_Module_State_clock__O                    
20005874  ti_sysbios_hal_SecondsClock_Module__state__V                         
0000b249  ti_sysbios_hal_SecondsClock_Module_startup__E                        
0000e6e9  ti_sysbios_hal_SecondsClock_getTime__E                               
0000e041  ti_sysbios_hal_SecondsClock_increment__I                             
000107e1  ti_sysbios_hal_SecondsClock_set__E                                   
0000e6e9  ti_sysbios_hal_Seconds_SecondsProxy_getTime__E                       
000107e1  ti_sysbios_hal_Seconds_SecondsProxy_set__E                           
0000e6e9  ti_sysbios_hal_Seconds_getTime__E                                    
000107e1  ti_sysbios_hal_Seconds_set__E                                        
00010919  ti_sysbios_hal_Timer_Instance_finalize__E                            
0000f611  ti_sysbios_hal_Timer_Instance_init__E                                
20005b08  ti_sysbios_hal_Timer_Module__root__V                                 
00010441  ti_sysbios_hal_Timer_Module_startup__E                               
0001882c  ti_sysbios_hal_Timer_Object__DESC__C                                 
0001852c  ti_sysbios_hal_Timer_Object__PARAMS__C                               
000107ed  ti_sysbios_hal_Timer_Params__init__S                                 
0000ffd9  ti_sysbios_hal_Timer_TimerProxy_Module__startupDone__S               
00010589  ti_sysbios_hal_Timer_TimerProxy_Object__create__S                    
0000fa25  ti_sysbios_hal_Timer_TimerProxy_Object__delete__S                    
0000fd45  ti_sysbios_hal_Timer_TimerProxy_create                               
0000af75  ti_sysbios_hal_Timer_TimerProxy_delete                               
0000e6a9  ti_sysbios_hal_Timer_TimerProxy_startup__E                           
0000cb5d  ti_sysbios_hal_Timer_create                                          
0000e6a9  ti_sysbios_hal_Timer_startup__E                                      
00018b60  ti_sysbios_heaps_HeapMem_A_align__C                                  
00018b64  ti_sysbios_heaps_HeapMem_A_heapSize__C                               
00018b68  ti_sysbios_heaps_HeapMem_A_invalidFree__C                            
00018b6c  ti_sysbios_heaps_HeapMem_A_zeroBlock__C                              
00018b70  ti_sysbios_heaps_HeapMem_E_memory__C                                 
0000feaf  ti_sysbios_heaps_HeapMem_Handle__label__S                            
20000400  ti_sysbios_heaps_HeapMem_Instance_State_0_buf__A                     
00007c19  ti_sysbios_heaps_HeapMem_Instance_init__E                            
0000fe95  ti_sysbios_heaps_HeapMem_Module_GateProxy_Handle__label__S           
0000f865  ti_sysbios_heaps_HeapMem_Module_GateProxy_Object__delete__S          
0000b00d  ti_sysbios_heaps_HeapMem_Module_GateProxy_enter__E                   
0000b685  ti_sysbios_heaps_HeapMem_Module_GateProxy_leave__E                   
00010a39  ti_sysbios_heaps_HeapMem_Module_GateProxy_query__E                   
000185dc  ti_sysbios_heaps_HeapMem_Module__FXNS__C                             
00018b74  ti_sysbios_heaps_HeapMem_Module__diagsEnabled__C                     
00018b78  ti_sysbios_heaps_HeapMem_Module__diagsIncluded__C                    
00018b7c  ti_sysbios_heaps_HeapMem_Module__diagsMask__C                        
00018b80  ti_sysbios_heaps_HeapMem_Module__gateObj__C                          
00018cf0  ti_sysbios_heaps_HeapMem_Module__id__C                               
20005b10  ti_sysbios_heaps_HeapMem_Module__root__V                             
0001884c  ti_sysbios_heaps_HeapMem_Object__DESC__C                             
000186e0  ti_sysbios_heaps_HeapMem_Object__PARAMS__C                           
00018b84  ti_sysbios_heaps_HeapMem_Object__count__C                            
0000f181  ti_sysbios_heaps_HeapMem_Object__create__S                           
0000fae9  ti_sysbios_heaps_HeapMem_Object__delete__S                           
00010295  ti_sysbios_heaps_HeapMem_Object__get__S                              
20005a84  ti_sysbios_heaps_HeapMem_Object__table__V                            
00004729  ti_sysbios_heaps_HeapMem_alloc__E                                    
00004001  ti_sysbios_heaps_HeapMem_free__E                                     
0000dc79  ti_sysbios_heaps_HeapMem_getStats__E                                 
0000e899  ti_sysbios_heaps_HeapMem_init__I                                     
00010a01  ti_sysbios_heaps_HeapMem_isBlocking__E                               
00018b88  ti_sysbios_heaps_HeapMem_reqAlign__C                                 
00018b8c  ti_sysbios_knl_Clock_A_badThreadType__C                              
0000a829  ti_sysbios_knl_Clock_Instance_finalize__E                            
000089a9  ti_sysbios_knl_Clock_Instance_init__E                                
00018b90  ti_sysbios_knl_Clock_Module_State_clockQ__O                          
00018b94  ti_sysbios_knl_Clock_Module__diagsEnabled__C                         
00018b98  ti_sysbios_knl_Clock_Module__diagsIncluded__C                        
00018b9c  ti_sysbios_knl_Clock_Module__diagsMask__C                            
00018cf2  ti_sysbios_knl_Clock_Module__id__C                                   
20005b18  ti_sysbios_knl_Clock_Module__root__V                                 
00010039  ti_sysbios_knl_Clock_Module__startupDone__F                          
00010039  ti_sysbios_knl_Clock_Module__startupDone__S                          
20005944  ti_sysbios_knl_Clock_Module__state__V                                
0000f889  ti_sysbios_knl_Clock_Module_startup__E                               
0001886c  ti_sysbios_knl_Clock_Object__DESC__C                                 
00018704  ti_sysbios_knl_Clock_Object__PARAMS__C                               
0000fb09  ti_sysbios_knl_Clock_Object__destruct__S                             
000107f9  ti_sysbios_knl_Clock_Params__init__S                                 
0000ffd9  ti_sysbios_knl_Clock_TimerProxy_Module__startupDone__S               
0000fa25  ti_sysbios_knl_Clock_TimerProxy_Object__delete__S                    
0000be2d  ti_sysbios_knl_Clock_TimerProxy_getFreq__E                           
0000c20d  ti_sysbios_knl_Clock_TimerProxy_getMaxTicks__E                       
0000d035  ti_sysbios_knl_Clock_TimerProxy_getPeriod__E                         
0000e6a9  ti_sysbios_knl_Clock_TimerProxy_startup__E                           
0000f639  ti_sysbios_knl_Clock_addI__E                                         
0000ee0d  ti_sysbios_knl_Clock_construct                                       
0000d095  ti_sysbios_knl_Clock_destruct                                        
0000f48d  ti_sysbios_knl_Clock_doTick__I                                       
00010809  ti_sysbios_knl_Clock_getTicks__E                                     
00010a51  ti_sysbios_knl_Clock_logTick__E                                      
0000bcd9  ti_sysbios_knl_Clock_start__E                                        
00010a09  ti_sysbios_knl_Clock_stop__E                                         
00018ba0  ti_sysbios_knl_Clock_tickPeriod__C                                   
0000be31  ti_sysbios_knl_Clock_workFunc__E                                     
00018ba4  ti_sysbios_knl_Event_A_badContext__C                                 
00018ba8  ti_sysbios_knl_Event_A_eventInUse__C                                 
00018bac  ti_sysbios_knl_Event_A_nullEventId__C                                
00018bb0  ti_sysbios_knl_Event_A_nullEventMasks__C                             
00018bb4  ti_sysbios_knl_Event_A_pendTaskDisabled__C                           
00018bb8  ti_sysbios_knl_Event_Instance_State_pendQ__O                         
000102a9  ti_sysbios_knl_Event_Instance_init__E                                
00018bbc  ti_sysbios_knl_Event_Module__diagsEnabled__C                         
00018bc0  ti_sysbios_knl_Event_Module__diagsIncluded__C                        
00018bc4  ti_sysbios_knl_Event_Module__diagsMask__C                            
00018cf4  ti_sysbios_knl_Event_Module__id__C                                   
20005b20  ti_sysbios_knl_Event_Module__root__V                                 
0001888c  ti_sysbios_knl_Event_Object__DESC__C                                 
000189c4  ti_sysbios_knl_Event_Object__PARAMS__C                               
0000f4b9  ti_sysbios_knl_Event_construct                                       
0000f1b1  ti_sysbios_knl_Event_pendTimeout__I                                  
00002cb9  ti_sysbios_knl_Event_pend__E                                         
00008bb9  ti_sysbios_knl_Event_post__E                                         
00018bc8  ti_sysbios_knl_Idle_funcList__A                                      
00018a98  ti_sysbios_knl_Idle_funcList__C                                      
000106b1  ti_sysbios_knl_Idle_loop__E                                          
0000fb29  ti_sysbios_knl_Idle_run__E                                           
00018bcc  ti_sysbios_knl_Mailbox_Instance_State_freeQue__O                     
0000e089  ti_sysbios_knl_Mailbox_Module_startup__E                             
00018bd0  ti_sysbios_knl_Mailbox_Object__count__C                              
00010599  ti_sysbios_knl_Mailbox_Object__get__S                                
00018bd4  ti_sysbios_knl_Mailbox_maxTypeAlign__C                               
0000e349  ti_sysbios_knl_Mailbox_postInit__I                                   
00010a11  ti_sysbios_knl_Queue_Instance_init__E                                
20005b28  ti_sysbios_knl_Queue_Module__root__V                                 
000188ac  ti_sysbios_knl_Queue_Object__DESC__C                                 
000189dc  ti_sysbios_knl_Queue_Object__PARAMS__C                               
0000fd61  ti_sysbios_knl_Queue_Object__destruct__S                             
00010821  ti_sysbios_knl_Queue_Object__get__S                                  
0000f4e5  ti_sysbios_knl_Queue_construct                                       
0000d0f5  ti_sysbios_knl_Queue_destruct                                        
000106c1  ti_sysbios_knl_Queue_empty__E                                        
0000fd81  ti_sysbios_knl_Queue_put__E                                          
00018bd8  ti_sysbios_knl_Semaphore_A_badContext__C                             
00018bdc  ti_sysbios_knl_Semaphore_A_noEvents__C                               
00018be0  ti_sysbios_knl_Semaphore_A_overflow__C                               
00018be4  ti_sysbios_knl_Semaphore_A_pendTaskDisabled__C                       
00018be8  ti_sysbios_knl_Semaphore_Instance_State_pendQ__O                     
000105a9  ti_sysbios_knl_Semaphore_Instance_finalize__E                        
0000ab49  ti_sysbios_knl_Semaphore_Instance_init__E                            
00018bec  ti_sysbios_knl_Semaphore_Module__diagsEnabled__C                     
00018bf0  ti_sysbios_knl_Semaphore_Module__diagsIncluded__C                    
00018bf4  ti_sysbios_knl_Semaphore_Module__diagsMask__C                        
00018cf6  ti_sysbios_knl_Semaphore_Module__id__C                               
20005b30  ti_sysbios_knl_Semaphore_Module__root__V                             
000188cc  ti_sysbios_knl_Semaphore_Object__DESC__C                             
00018728  ti_sysbios_knl_Semaphore_Object__PARAMS__C                           
0000fb49  ti_sysbios_knl_Semaphore_Object__destruct__S                         
0001082d  ti_sysbios_knl_Semaphore_Params__init__S                             
0000f1e1  ti_sysbios_knl_Semaphore_construct                                   
0000d725  ti_sysbios_knl_Semaphore_destruct                                    
0000f211  ti_sysbios_knl_Semaphore_pendTimeout__I                              
00003849  ti_sysbios_knl_Semaphore_pend__E                                     
00009751  ti_sysbios_knl_Semaphore_post__E                                     
00018bf8  ti_sysbios_knl_Swi_A_badPriority__C                                  
0000fec9  ti_sysbios_knl_Swi_Handle__label__S                                  
0000d729  ti_sysbios_knl_Swi_Instance_finalize__E                              
00009c89  ti_sysbios_knl_Swi_Instance_init__E                                  
20004f20  ti_sysbios_knl_Swi_Module_State_0_readyQ__A                          
00018bfc  ti_sysbios_knl_Swi_Module__diagsEnabled__C                           
00018c00  ti_sysbios_knl_Swi_Module__diagsIncluded__C                          
00018c04  ti_sysbios_knl_Swi_Module__diagsMask__C                              
00018cf8  ti_sysbios_knl_Swi_Module__id__C                                     
20005b38  ti_sysbios_knl_Swi_Module__root__V                                   
20005a38  ti_sysbios_knl_Swi_Module__state__V                                  
0000f661  ti_sysbios_knl_Swi_Module_startup__E                                 
000188ec  ti_sysbios_knl_Swi_Object__DESC__C                                   
00018604  ti_sysbios_knl_Swi_Object__PARAMS__C                                 
00018c08  ti_sysbios_knl_Swi_Object__count__C                                  
000102bd  ti_sysbios_knl_Swi_Object__get__S                                    
200058e4  ti_sysbios_knl_Swi_Object__table__V                                  
00010839  ti_sysbios_knl_Swi_Params__init__S                                   
0000cf7d  ti_sysbios_knl_Swi_create                                            
000105b9  ti_sysbios_knl_Swi_disable__E                                        
0000e391  ti_sysbios_knl_Swi_post__E                                           
0000c211  ti_sysbios_knl_Swi_restoreHwi__E                                     
0000e8d9  ti_sysbios_knl_Swi_restore__E                                        
0000dcc9  ti_sysbios_knl_Swi_runLoop__I                                        
0000cfd9  ti_sysbios_knl_Swi_run__I                                            
0000d039  ti_sysbios_knl_Swi_schedule__I                                       
00010a19  ti_sysbios_knl_Swi_startup__E                                        
00018c0c  ti_sysbios_knl_Task_A_badPriority__C                                 
00018c10  ti_sysbios_knl_Task_A_badTaskState__C                                
00018c14  ti_sysbios_knl_Task_A_badThreadType__C                               
00018c18  ti_sysbios_knl_Task_A_badTimeout__C                                  
00018c1c  ti_sysbios_knl_Task_A_noPendElem__C                                  
00018c20  ti_sysbios_knl_Task_A_sleepTaskDisabled__C                           
00018c24  ti_sysbios_knl_Task_E_spOutOfBounds__C                               
00018c28  ti_sysbios_knl_Task_E_stackOverflow__C                               
0000fee3  ti_sysbios_knl_Task_Handle__label__S                                 
20003f60  ti_sysbios_knl_Task_Instance_State_0_stack__A                        
00004979  ti_sysbios_knl_Task_Instance_finalize__E                             
000062e1  ti_sysbios_knl_Task_Instance_init__E                                 
20005b9c  ti_sysbios_knl_Task_Module_State_0_idleTask__A                       
20004fa0  ti_sysbios_knl_Task_Module_State_0_readyQ__A                         
00018c2c  ti_sysbios_knl_Task_Module_State_inactiveQ__O                        
00018c30  ti_sysbios_knl_Task_Module__diagsEnabled__C                          
00018c34  ti_sysbios_knl_Task_Module__diagsIncluded__C                         
00018c38  ti_sysbios_knl_Task_Module__diagsMask__C                             
00018cfa  ti_sysbios_knl_Task_Module__id__C                                    
20005b40  ti_sysbios_knl_Task_Module__root__V                                  
200056b0  ti_sysbios_knl_Task_Module__state__V                                 
0000d099  ti_sysbios_knl_Task_Module_startup__E                                
0001890c  ti_sysbios_knl_Task_Object__DESC__C                                  
00018460  ti_sysbios_knl_Task_Object__PARAMS__C                                
00018c3c  ti_sysbios_knl_Task_Object__count__C                                 
000105c9  ti_sysbios_knl_Task_Object__get__S                                   
2000561c  ti_sysbios_knl_Task_Object__table__V                                 
00010845  ti_sysbios_knl_Task_Params__init__S                                  
0000ab45  ti_sysbios_knl_Task_SupportProxy_Module__startupDone__S              
000107a1  ti_sysbios_knl_Task_SupportProxy_checkStack__E                       
000107b1  ti_sysbios_knl_Task_SupportProxy_getStackAlignment__E                
0000f061  ti_sysbios_knl_Task_SupportProxy_start__E                            
00010009  ti_sysbios_knl_Task_SupportProxy_swap__E                             
00018c40  ti_sysbios_knl_Task_allBlockedFunc__C                                
0000dd19  ti_sysbios_knl_Task_allBlockedFunction__I                            
0000dd69  ti_sysbios_knl_Task_block__E                                         
0000a4b1  ti_sysbios_knl_Task_checkStacks__E                                   
0000d77d  ti_sysbios_knl_Task_construct                                        
00018c44  ti_sysbios_knl_Task_defaultStackHeap__C                              
00018c48  ti_sysbios_knl_Task_defaultStackSize__C                              
000105d9  ti_sysbios_knl_Task_disable__E                                       
0000fda1  ti_sysbios_knl_Task_enter__I                                         
0000bea1  ti_sysbios_knl_Task_exit__E                                          
00018c4c  ti_sysbios_knl_Task_numConstructedTasks__C                           
0000b011  ti_sysbios_knl_Task_postInit__I                                      
0000eb49  ti_sysbios_knl_Task_processVitalTaskFlag__I                          
0000f8b1  ti_sysbios_knl_Task_restoreHwi__E                                    
0000f511  ti_sysbios_knl_Task_restore__E                                       
0000cd49  ti_sysbios_knl_Task_schedule__I                                      
00007e91  ti_sysbios_knl_Task_setPri__E                                        
00010051  ti_sysbios_knl_Task_sleepTimeout__I                                  
00006119  ti_sysbios_knl_Task_sleep__E                                         
0000d0f9  ti_sysbios_knl_Task_startCore__E                                     
00010a41  ti_sysbios_knl_Task_startup__E                                       
00010015  ti_sysbios_knl_Task_swapReturn                                       
0000f241  ti_sysbios_knl_Task_unblockI__E                                      
00003599  timeConvert                                                          
0000cbc1  timer1sec                                                            
20004e90  timerclock                                                           
00010851  uDMAControlBaseSet                                                   
000105e9  uDMAEnable                                                           
20004e94  uart                                                                 
000189f4  uartTivaHWAttrs                                                      
20004950  uartTivaObjects                                                      
20004d84  uartTivaRingBuffer                                                   
00000ab9  updateMotor                                                          
000053dd  updateSensorPage                                                     
0000fc3f  updatetime                                                           
00010453  wcslen                                                               
0000d155  writeI2C                                                             
00018c50  xdc_runtime_Assert_E_assertFailed__C                                 
0000d7d1  xdc_runtime_Assert_raise__I                                          
00018c54  xdc_runtime_Core_A_initializedParams__C                              
00018c58  xdc_runtime_Core_Module__diagsEnabled__C                             
00018c5c  xdc_runtime_Core_Module__diagsIncluded__C                            
00018c60  xdc_runtime_Core_Module__diagsMask__C                                
00018cfc  xdc_runtime_Core_Module__id__C                                       
0000ee41  xdc_runtime_Core_assignLabel__I                                      
0000e22f  xdc_runtime_Core_assignParams__I                                     
00009d5d  xdc_runtime_Core_constructObject__I                                  
00008cbd  xdc_runtime_Core_createObject__I                                     
0000c839  xdc_runtime_Core_deleteObject__I                                     
00018c64  xdc_runtime_Error_E_generic__C                                       
00018c68  xdc_runtime_Error_E_memory__C                                        
00018c6c  xdc_runtime_Error_Module__diagsEnabled__C                            
00018c70  xdc_runtime_Error_Module__diagsIncluded__C                           
00018c74  xdc_runtime_Error_Module__diagsMask__C                               
00018cfe  xdc_runtime_Error_Module__loggerDefined__C                           
00018c78  xdc_runtime_Error_Module__loggerFxn8__C                              
00018c7c  xdc_runtime_Error_Module__loggerObj__C                               
20005b76  xdc_runtime_Error_Module__state__V                                   
00010069  xdc_runtime_Error_check__E                                           
0000dc25  xdc_runtime_Error_getSite__E                                         
0001085d  xdc_runtime_Error_init__E                                            
00018d00  xdc_runtime_Error_maxDepth__C                                        
00008349  xdc_runtime_Error_policyDefault__E                                   
00018c80  xdc_runtime_Error_policyFxn__C                                       
0001757f  xdc_runtime_Error_policy__C                                          
0000c2e9  xdc_runtime_Error_print__E                                           
00018c84  xdc_runtime_Error_raiseHook__C                                       
0000fdbd  xdc_runtime_Error_raiseX__E                                          
0000e3d5  xdc_runtime_Error_setX__E                                            
00010869  xdc_runtime_Gate_enterSystem__E                                      
000105f9  xdc_runtime_Gate_leaveSystem__E                                      
00018c88  xdc_runtime_IGateProvider_Interface__BASE__C                         
00018c8c  xdc_runtime_IHeap_Interface__BASE__C                                 
00018c90  xdc_runtime_IModule_Interface__BASE__C                               
00018c94  xdc_runtime_Log_L_error__C                                           
0000fe61  xdc_runtime_Main_Module_GateProxy_Handle__label__S                   
0000fac9  xdc_runtime_Main_Module_GateProxy_Object__delete__S                  
000107bd  xdc_runtime_Main_Module_GateProxy_Params__init__S                    
00010a29  xdc_runtime_Main_Module_GateProxy_query__E                           
00018d02  xdc_runtime_Main_Module__id__C                                       
0000feaf  xdc_runtime_Memory_HeapProxy_Handle__label__S                        
0000fae9  xdc_runtime_Memory_HeapProxy_Object__delete__S                       
00010923  xdc_runtime_Memory_HeapProxy_alloc__E                                
0001092d  xdc_runtime_Memory_HeapProxy_free__E                                 
00018d04  xdc_runtime_Memory_Module__id__C                                     
20005ba4  xdc_runtime_Memory_Module__state__V                                  
0000c355  xdc_runtime_Memory_alloc__E                                          
00010875  xdc_runtime_Memory_calloc__E                                         
00018c98  xdc_runtime_Memory_defaultHeapInstance__C                            
00010609  xdc_runtime_Memory_free__E                                           
00010881  xdc_runtime_Memory_getMaxDefaultTypeAlign__E                         
0000fdd9  xdc_runtime_Memory_valloc__E                                         
20005b48  xdc_runtime_Registry_Module__state__V                                
0000fb69  xdc_runtime_Registry_findById__E                                     
20005b50  xdc_runtime_Startup_Module__state__V                                 
00000001  xdc_runtime_Startup__EXECFXN__C                                      
00000001  xdc_runtime_Startup__RESETFXN__C                                     
00018c9c  xdc_runtime_Startup_execImpl__C                                      
0000da09  xdc_runtime_Startup_exec__E                                          
00010465  xdc_runtime_Startup_exec__I                                          
00018a38  xdc_runtime_Startup_firstFxns__A                                     
00018aa0  xdc_runtime_Startup_firstFxns__C                                     
00018ca0  xdc_runtime_Startup_lastFxns__A                                      
00018aa8  xdc_runtime_Startup_lastFxns__C                                      
00018ca4  xdc_runtime_Startup_maxPasses__C                                     
00006fcf  xdc_runtime_Startup_reset__I                                         
00018a0c  xdc_runtime_Startup_sfxnRts__A                                       
00018ca8  xdc_runtime_Startup_sfxnRts__C                                       
0001855c  xdc_runtime_Startup_sfxnTab__A                                       
00018cac  xdc_runtime_Startup_sfxnTab__C                                       
00008fb1  xdc_runtime_Startup_startMods__I                                     
20003800  xdc_runtime_SysMin_Module_State_0_outbuf__A                          
20005abc  xdc_runtime_SysMin_Module__state__V                                  
0000fb89  xdc_runtime_SysMin_Module_startup__E                                 
0000f271  xdc_runtime_SysMin_abort__E                                          
00018cb0  xdc_runtime_SysMin_bufSize__C                                        
0000fdf5  xdc_runtime_SysMin_exit__E                                           
00018d06  xdc_runtime_SysMin_flushAtExit__C                                    
0000e419  xdc_runtime_SysMin_flush__E                                          
00018cb4  xdc_runtime_SysMin_outputFunc__C                                     
0000f983  xdc_runtime_SysMin_output__I                                         
0000eb81  xdc_runtime_SysMin_putch__E                                          
00010619  xdc_runtime_SysMin_ready__E                                          
0000fe61  xdc_runtime_System_Module_GateProxy_Handle__label__S                 
0000fac9  xdc_runtime_System_Module_GateProxy_Object__delete__S                
000107bd  xdc_runtime_System_Module_GateProxy_Params__init__S                  
0000dc75  xdc_runtime_System_Module_GateProxy_enter__E                         
0000dcc5  xdc_runtime_System_Module_GateProxy_leave__E                         
00010a29  xdc_runtime_System_Module_GateProxy_query__E                         
20005b58  xdc_runtime_System_Module_State_0_atexitHandlers__A                  
00018cb8  xdc_runtime_System_Module__gateObj__C                                
20005b60  xdc_runtime_System_Module__state__V                                  
000109db  xdc_runtime_System_Module_startup__E                                 
0000f271  xdc_runtime_System_SupportProxy_abort__E                             
0000fdf5  xdc_runtime_System_SupportProxy_exit__E                              
0000e419  xdc_runtime_System_SupportProxy_flush__E                             
0000eb81  xdc_runtime_System_SupportProxy_putch__E                             
00010619  xdc_runtime_System_SupportProxy_ready__E                             
00018cbc  xdc_runtime_System_abortFxn__C                                       
0000798d  xdc_runtime_System_abortStd__E                                       
0000fe11  xdc_runtime_System_abort__E                                          
0000fefd  xdc_runtime_System_aprintf__E                                        
0000dd15  xdc_runtime_System_aprintf_va__F                                     
0000ebb9  xdc_runtime_System_atexit__E                                         
0000f6d5  xdc_runtime_System_avprintf__E                                       
0000296d  xdc_runtime_System_doPrint__I                                        
00018cc0  xdc_runtime_System_exitFxn__C                                        
0000798d  xdc_runtime_System_exitStd__E                                        
00010081  xdc_runtime_System_exit__E                                           
00018cc4  xdc_runtime_System_extendFxn__C                                      
0000e419  xdc_runtime_System_flush__E                                          
0000bf81  xdc_runtime_System_formatNum__I                                      
00018cc8  xdc_runtime_System_maxAtexitHandlers__C                              
000090a9  xdc_runtime_System_printfExtend__I                                   
0000ff17  xdc_runtime_System_printf__E                                         
0000dd65  xdc_runtime_System_printf_va__F                                      
0000f2a1  xdc_runtime_System_processAtExit__E                                  
0000f5bd  xdc_runtime_System_putchar__I                                        
0000f8d5  xdc_runtime_System_vprintf__E                                        
00010629  xdc_runtime_System_vsnprintf__E                                      
00018d08  xdc_runtime_Text_charCnt__C                                          
00010a58  xdc_runtime_Text_charTab__A                                          
00018ccc  xdc_runtime_Text_charTab__C                                          
0000f53d  xdc_runtime_Text_cordText__E                                         
00018d0a  xdc_runtime_Text_isLoaded__C                                         
00018cd0  xdc_runtime_Text_nameEmpty__C                                        
00018cd4  xdc_runtime_Text_nameStatic__C                                       
00018cd8  xdc_runtime_Text_nameUnknown__C                                      
000179a0  xdc_runtime_Text_nodeTab__A                                          
00018cdc  xdc_runtime_Text_nodeTab__C                                          
0000ee75  xdc_runtime_Text_printVisFxn__I                                      
0000d1b1  xdc_runtime_Text_putLab__E                                           
0000a96d  xdc_runtime_Text_putMod__E                                           
0000abe5  xdc_runtime_Text_putSite__E                                          
00018d0c  xdc_runtime_Text_registryModsLastId__C                               
00010099  xdc_runtime_Text_ropeText__E                                         
00018d0e  xdc_runtime_Text_unnamedModsLastId__C                                
0000da59  xdc_runtime_Text_visitRope2__I                                       
00018ce0  xdc_runtime_Text_visitRopeFxn__C                                     
00010639  xdc_runtime_Text_visitRope__I                                        
0000e45d  xdc_runtime_Text_xprintf__I                                          
00010519  xdc_runtime_Timestamp_SupportProxy_getFreq__E                        
00010519  xdc_runtime_Timestamp_getFreq__E                                     


GLOBAL SYMBOLS: SORTED BY Symbol Address 

address   name                                                                 
-------   ----                                                                 
00000000  __ASM__                                                              
00000000  ti_sysbios_family_arm_m3_Hwi_resetVectors                            
00000001  xdc_runtime_Startup__EXECFXN__C                                      
00000001  xdc_runtime_Startup__RESETFXN__C                                     
00000041  __TI_printfi                                                         
0000008b  __ISA__                                                              
0000009e  __PLAT__                                                             
000000bf  __TARG__                                                             
000000e5  __TRDR__                                                             
00000400  __STACK_SIZE                                                         
00000a8f  _nop                                                                 
00000a91  setDuty                                                              
00000ab9  updateMotor                                                          
00000c9f  stopMotor                                                            
00000cf9  enableMotor                                                          
00000d07  disableMotor                                                         
00000d19  initMotorLibPWM                                                      
00000de5  getMotorLibPWMPeriod                                                 
00000e39  initMotorLib                                                         
0000113d  RegulateSpeed                                                        
00001721  ti_sysbios_family_arm_m3_Hwi_excDumpRegs__I                          
00001b51  MotorPage                                                            
00001eed  GraphPrimitive                                                       
00002281  SensorPage                                                           
0000296d  xdc_runtime_System_doPrint__I                                        
00002cb9  ti_sysbios_knl_Event_pend__E                                         
00003597  __aeabi_idiv0                                                        
00003597  __aeabi_ldiv0                                                        
00003599  timeConvert                                                          
00003849  ti_sysbios_knl_Semaphore_pend__E                                     
00003aed  TopBarDraw                                                           
00003ffd  I2CMasterControl                                                     
00004001  ti_sysbios_heaps_HeapMem_free__E                                     
000044d5  GrFontGlyphRender                                                    
00004729  ti_sysbios_heaps_HeapMem_alloc__E                                    
00004979  ti_sysbios_knl_Task_Instance_finalize__E                             
00004bad  I2CMasterDataGet                                                     
00004bb1  ti_sysbios_family_arm_lm4_Timer_Instance_init__E                     
00004dcd  UARTTiva_open                                                        
00004fd9  ti_catalog_arm_cortexm4_tiva_ce_Boot_sysCtlClockFreqSetI__I          
000051dd  exp2                                                                 
000051dd  exp2l                                                                
000053dd  updateSensorPage                                                     
000055d5  I2CMasterDataPut                                                     
000055d9  ti_sysbios_family_arm_m3_Hwi_excHandlerMax__I                        
000057cd  main                                                                 
000059b5  Kentec320x240x16_SSD2119Init                                         
00005d75  readOptFxn                                                           
00006119  ti_sysbios_knl_Task_sleep__E                                         
000062e1  ti_sysbios_knl_Task_Instance_init__E                                 
000064a1  __aeabi_dsub                                                         
000064ab  __aeabi_dadd                                                         
00006657  ti_sysbios_BIOS_nullFunc__I                                          
00006659  PinoutSet                                                            
000067fd  UARTIntClear                                                         
00006801  ti_sysbios_gates_GateMutexPri_enter__E                               
000069a1  UpdateGraphPlot                                                      
00006ccd  heartBeatFxn                                                         
00006fcf  xdc_runtime_Startup_reset__I                                         
00006fd1  TouchScreenIntHandler                                                
00007149  ti_sysbios_family_arm_m3_Hwi_excBusFault__I                          
000072bd  PWMTiva_open                                                         
0000742d  WidgetDefaultMsgProc                                                 
00007431  ti_sysbios_family_arm_m3_Hwi_excUsageFault__I                        
00007595  accelSensorFilterFxn                                                 
000076f1  GPIO_setConfig                                                       
00007841  readAccFxn                                                           
0000798d  C$$EXIT                                                              
0000798d  abort                                                                
0000798d  xdc_runtime_System_abortStd__E                                       
0000798d  xdc_runtime_System_exitStd__E                                        
00007991  ti_sysbios_family_arm_m3_Hwi_excMemFault__I                          
00007c15  ti_sysbios_BIOS_RtsGateProxy_enter__E                                
00007c19  ti_sysbios_heaps_HeapMem_Instance_init__E                            
00007d55  __aeabi_ddiv                                                         
00007e8b  GPIOIntClear                                                         
00007e91  ti_sysbios_knl_Task_setPri__E                                        
00007fc5  BannerInit                                                           
000080f5  GPIOPadConfigSet                                                     
00008349  xdc_runtime_Error_policyDefault__E                                   
00008461  PWMTimerTiva_open                                                    
00008575  ldexp                                                                
00008575  ldexpl                                                               
00008575  scalbn                                                               
00008575  scalbnl                                                              
00008791  TouchScreenInit                                                      
0000889d  ti_sysbios_BIOS_RtsGateProxy_leave__E                                
000088a1  ti_sysbios_family_arm_lm4_Timer_start__E                             
000089a9  ti_sysbios_knl_Clock_Instance_init__E                                
00008ab1  GrLineDraw                                                           
00008bb9  ti_sysbios_knl_Event_post__E                                         
00008cbd  xdc_runtime_Core_createObject__I                                     
00008dbd  __aeabi_dmul                                                         
00008eb9  floor                                                                
00008eb9  floorl                                                               
00008fb1  xdc_runtime_Startup_startMods__I                                     
000090a9  xdc_runtime_System_printfExtend__I                                   
000091a1  MotorMain                                                            
00009295  graphSelectPage                                                      
00009389  ti_sysbios_family_arm_m3_Hwi_dispatch__I                             
0000956f  PWMTiva_setDuty                                                      
0000965f  bmi160_init                                                          
00009751  ti_sysbios_knl_Semaphore_post__E                                     
0000983d  WidgetMessageQueueAdd                                                
00009925  I2CTiva_open                                                         
00009a05  MainPage                                                             
00009c89  ti_sysbios_knl_Swi_Instance_init__E                                  
00009d5d  xdc_runtime_Core_constructObject__I                                  
00009e29  GrDefaultStringRenderer                                              
00009ee9  ti_sysbios_family_arm_m3_Hwi_excDebugMon__I                          
00009fa5  ti_sysbios_family_arm_lm4_Timer_masterEnable__I                      
00009fa9  ti_sysbios_family_arm_m3_Hwi_excHardFault__I                         
0000a065  EK_TM4C1294XL_initGeneral                                            
0000a28d  PWMTimerTiva_setDuty                                                 
0000a345  WidgetMessageSendPostOrder                                           
0000a3f9  ti_sysbios_gates_GateMutex_enter__E                                  
0000a4ad  ti_sysbios_family_arm_m3_Hwi_delete                                  
0000a4b1  ti_sysbios_knl_Task_checkStacks__E                                   
0000a773  GPIOPinRead                                                          
0000a779  ti_sysbios_family_arm_lm4_Timer_enableTiva__I                        
0000a825  ti_sysbios_family_arm_m3_Hwi_destruct                                
0000a829  ti_sysbios_knl_Clock_Instance_finalize__E                            
0000a8cd  __TI_auto_init                                                       
0000a96d  xdc_runtime_Text_putMod__E                                           
0000aa0d  EK_TM4C1294XL_initI2C                                                
0000aaa9  __aeabi_memcpy                                                       
0000aaa9  __aeabi_memcpy4                                                      
0000aaa9  __aeabi_memcpy8                                                      
0000aaa9  memcpy                                                               
0000ab45  ti_sysbios_family_arm_m3_TaskSupport_Module__startupDone__S          
0000ab45  ti_sysbios_knl_Task_SupportProxy_Module__startupDone__S              
0000ab49  ti_sysbios_knl_Semaphore_Instance_init__E                            
0000abe5  xdc_runtime_Text_putSite__E                                          
0000ac7f  UARTTiva_readPolling                                                 
0000ad19  ti_catalog_arm_cortexm4_tiva_ce_Boot_sysCtlClockFreqSet__E           
0000adb1  __aeabi_uldivmod                                                     
0000ae47  UARTTiva_write                                                       
0000aedb  GPIOPinWrite                                                         
0000aee1  ti_sysbios_family_arm_m3_Hwi_Instance_init__E                        
0000af75  ti_sysbios_hal_Timer_TimerProxy_delete                               
0000af79  ti_sysbios_family_arm_m3_Hwi_initNVIC__E                             
0000b00d  ti_sysbios_heaps_HeapMem_Module_GateProxy_enter__E                   
0000b011  ti_sysbios_knl_Task_postInit__I                                      
0000b0a5  GPIO_init                                                            
0000b131  UARTTiva_control                                                     
0000b1bd  ti_sysbios_family_arm_m3_TaskSupport_buildTaskStack                  
0000b249  ti_sysbios_hal_SecondsClock_Module_startup__E                        
0000b361  PWMTiva_control                                                      
0000b3e9  GrRectFill                                                           
0000b46f  __aeabi_cdcmpeq                                                      
0000b46f  __aeabi_cdcmple                                                      
0000b4f5  __aeabi_cdrcmple                                                     
0000b57d  GraphPageAccel                                                       
0000b601  GraphPageLight                                                       
0000b685  ti_sysbios_heaps_HeapMem_Module_GateProxy_leave__E                   
0000b689  ti_sysbios_family_arm_m3_Hwi_postInit__I                             
0000b70d  opt3001_init                                                         
0000b811  GrRectIntersectGet                                                   
0000b891  I2CTiva_transfer                                                     
0000b911  ti_sysbios_family_arm_lm4_Timer_disableTiva__I                       
0000b98d  ADCSequenceStepConfigure                                             
0000ba81  __aeabi_memclr                                                       
0000ba81  __aeabi_memclr4                                                      
0000ba81  __aeabi_memclr8                                                      
0000ba83  __aeabi_memset                                                       
0000ba83  __aeabi_memset4                                                      
0000ba83  __aeabi_memset8                                                      
0000ba89  memset                                                               
0000bafd  UpdateAccelGraph                                                     
0000bb75  UpdateLightGraph                                                     
0000bbed  ArrayUpdate                                                          
0000bc65  InitScreen                                                           
0000bcd9  ti_sysbios_knl_Clock_start__E                                        
0000bd4d  lightSensorFilterFxn                                                 
0000bdbd  opt3001_read                                                         
0000be2d  ti_sysbios_knl_Clock_TimerProxy_getFreq__E                           
0000be31  ti_sysbios_knl_Clock_workFunc__E                                     
0000bea1  ti_sysbios_knl_Task_exit__E                                          
0000bf81  xdc_runtime_System_formatNum__I                                      
0000bff1  CalcAvg                                                              
0000c05d  HAllF                                                                
0000c0c9  PWMTimerTiva_control                                                 
0000c135  ti_sysbios_family_arm_lm4_Timer_Object__create__S                    
0000c1a1  ti_sysbios_gates_GateMutexPri_leave__E                               
0000c20d  ti_sysbios_knl_Clock_TimerProxy_getMaxTicks__E                       
0000c211  ti_sysbios_knl_Swi_restoreHwi__E                                     
0000c2e9  xdc_runtime_Error_print__E                                           
0000c355  xdc_runtime_Memory_alloc__E                                          
0000c3c1  PWMTiva_close                                                        
0000c42d  BackMainMotorPage                                                    
0000c495  GrContextInit                                                        
0000c4fd  GrStringWidthGet                                                     
0000c565  IntEnable                                                            
0000c69d  __TI_decompress_lzss                                                 
0000c705  opt3001_convert                                                      
0000c76d  GrContextClipRegionSet                                               
0000c7d3  GrRectDraw                                                           
0000c839  xdc_runtime_Core_deleteObject__I                                     
0000c8a1  GPIO_hwiIntFxn                                                       
0000c905  WidgetMessageQueueProcess                                            
0000c969  frexp                                                                
0000c969  frexpl                                                               
0000c9cd  min_element                                                          
0000ca31  ti_sysbios_family_arm_lm4_Timer_Module_startup__E                    
0000ca95  ti_sysbios_family_arm_m3_Hwi_create                                  
0000caf9  ti_sysbios_family_arm_m3_Hwi_dispatchC__I                            
0000cb5d  ti_sysbios_hal_Timer_create                                          
0000cbc1  timer1sec                                                            
0000cc89  TimerConfigure                                                       
0000cd49  ti_sysbios_knl_Task_schedule__I                                      
0000cda9  WidgetMessageSendPreOrder                                            
0000ce07  bmi160_getAccel                                                      
0000cf21  max_element                                                          
0000cf7d  ti_sysbios_knl_Swi_create                                            
0000cfd9  ti_sysbios_knl_Swi_run__I                                            
0000d035  ti_sysbios_knl_Clock_TimerProxy_getPeriod__E                         
0000d039  ti_sysbios_knl_Swi_schedule__I                                       
0000d095  ti_sysbios_knl_Clock_destruct                                        
0000d099  ti_sysbios_knl_Task_Module_startup__E                                
0000d0f5  ti_sysbios_knl_Queue_destruct                                        
0000d0f9  ti_sysbios_knl_Task_startCore__E                                     
0000d155  writeI2C                                                             
0000d1b1  xdc_runtime_Text_putLab__E                                           
0000d269  _c_int00                                                             
0000d2c1  HOSTwrite                                                            
0000d371  TimerControlTrigger                                                  
0000d3c9  ti_sysbios_family_arm_lm4_Timer_Instance_finalize__E                 
0000d421  ti_sysbios_family_arm_m3_Hwi_construct                               
0000d479  ti_sysbios_family_arm_m3_Hwi_initStacks__E                           
0000d4d1  MotorInit                                                            
0000d529  GPIOIntTypeSet                                                       
0000d5d5  __TI_ltoa                                                            
0000d629  i2c_Open                                                             
0000d6d1  ti_sysbios_family_arm_lm4_Timer_initDevice__I                        
0000d725  ti_sysbios_knl_Semaphore_destruct                                    
0000d729  ti_sysbios_knl_Swi_Instance_finalize__E                              
0000d77d  ti_sysbios_knl_Task_construct                                        
0000d7d1  xdc_runtime_Assert_raise__I                                          
0000d879  GPIO_setCallback                                                     
0000d8c9  GPIO_write                                                           
0000d919  UARTTiva_writeCancel                                                 
0000d9b9  ti_sysbios_family_arm_m3_Hwi_Module_startup__E                       
0000da09  xdc_runtime_Startup_exec__E                                          
0000da59  xdc_runtime_Text_visitRope2__I                                       
0000daa9  UARTTiva_close                                                       
0000daf5  WidgetRemove                                                         
0000db41  atoi                                                                 
0000db8d  copy_in                                                              
0000dbd9  readI2C                                                              
0000dc25  xdc_runtime_Error_getSite__E                                         
0000dc29  ti_sysbios_family_arm_lm4_Timer_setAvailMask__E                      
0000dc75  xdc_runtime_System_Module_GateProxy_enter__E                         
0000dc79  ti_sysbios_heaps_HeapMem_getStats__E                                 
0000dcc5  xdc_runtime_System_Module_GateProxy_leave__E                         
0000dcc9  ti_sysbios_knl_Swi_runLoop__I                                        
0000dd15  xdc_runtime_System_aprintf_va__F                                     
0000dd19  ti_sysbios_knl_Task_allBlockedFunction__I                            
0000dd65  xdc_runtime_System_printf_va__F                                      
0000dd69  ti_sysbios_knl_Task_block__E                                         
0000ddb5  PWMTimerTiva_close                                                   
0000de49  GPIOPinConfigure                                                     
0000de91  I2CMasterInitExpClk                                                  
0000ded9  __aeabi_d2iz                                                         
0000df21  ti_sysbios_family_arm_lm4_Timer_enableTimers__I                      
0000df69  ti_sysbios_family_arm_m3_Hwi_disableInterrupt__E                     
0000df69  ti_sysbios_hal_Hwi_HwiProxy_disableInterrupt__E                      
0000df69  ti_sysbios_hal_Hwi_disableInterrupt__E                               
0000dfb1  ti_sysbios_family_arm_m3_Hwi_enableInterrupt__E                      
0000dfb1  ti_sysbios_hal_Hwi_HwiProxy_enableInterrupt__E                       
0000dfb1  ti_sysbios_hal_Hwi_enableInterrupt__E                                
0000dff9  ti_sysbios_family_arm_m3_Hwi_excReserved__I                          
0000e041  ti_sysbios_hal_SecondsClock_increment__I                             
0000e089  ti_sysbios_knl_Mailbox_Module_startup__E                             
0000e0d1  GrLineDrawH                                                          
0000e117  GrLineDrawV                                                          
0000e1a3  RingBuf_put                                                          
0000e1e9  initUART                                                             
0000e22f  xdc_runtime_Core_assignParams__I                                     
0000e275  GetCurrentSpeed                                                      
0000e2b9  ti_sysbios_family_arm_lm4_Timer_isrStub__E                           
0000e301  ti_sysbios_family_arm_m3_Hwi_getStackInfo__E                         
0000e301  ti_sysbios_hal_Hwi_HwiProxy_getStackInfo__E                          
0000e301  ti_sysbios_hal_Hwi_getStackInfo__E                                   
0000e349  ti_sysbios_knl_Mailbox_postInit__I                                   
0000e391  ti_sysbios_knl_Swi_post__E                                           
0000e3d5  xdc_runtime_Error_setX__E                                            
0000e419  xdc_runtime_SysMin_flush__E                                          
0000e419  xdc_runtime_System_SupportProxy_flush__E                             
0000e419  xdc_runtime_System_flush__E                                          
0000e45d  xdc_runtime_Text_xprintf__I                                          
0000e4a1  UARTConfigSetExpClk                                                  
0000e525  UARTTiva_writePolling                                                
0000e569  InitsingleBuffer                                                     
0000e5a9  RingBuf_get                                                          
0000e5e9  UARTTiva_read                                                        
0000e629  __aeabi_uidiv                                                        
0000e629  __aeabi_uidivmod                                                     
0000e669  sprintf                                                              
0000e6a9  ti_sysbios_family_arm_lm4_Timer_startup__E                           
0000e6a9  ti_sysbios_hal_Timer_TimerProxy_startup__E                           
0000e6a9  ti_sysbios_hal_Timer_startup__E                                      
0000e6a9  ti_sysbios_knl_Clock_TimerProxy_startup__E                           
0000e6e9  ti_sysbios_hal_SecondsClock_getTime__E                               
0000e6e9  ti_sysbios_hal_Seconds_SecondsProxy_getTime__E                       
0000e6e9  ti_sysbios_hal_Seconds_getTime__E                                    
0000e729  ADCSequenceConfigure                                                 
0000e7a5  CalcNoRemainder                                                      
0000e7e1  SSIConfigSetExpClk                                                   
0000e81d  checkEstop                                                           
0000e859  ti_sysbios_family_arm_m3_Hwi_excSvCall__I                            
0000e899  ti_sysbios_heaps_HeapMem_init__I                                     
0000e8d9  ti_sysbios_knl_Swi_restore__E                                        
0000e989  GrRectOverlapCheck                                                   
0000e9c1  I2C_init                                                             
0000e9f9  PWM_init                                                             
0000ea31  RemoveGraphSelect                                                    
0000ea69  SysCtlPeripheralReady                                                
0000eaa1  UART_init                                                            
0000ead9  __TI_writemsg                                                        
0000eb07  C$$IO$$                                                              
0000eb11  ti_sysbios_family_arm_m3_Hwi_excNoIsr__I                             
0000eb49  ti_sysbios_knl_Task_processVitalTaskFlag__I                          
0000eb81  xdc_runtime_SysMin_putch__E                                          
0000eb81  xdc_runtime_System_SupportProxy_putch__E                             
0000ebb9  xdc_runtime_System_atexit__E                                         
0000ec27  I2CTiva_close                                                        
0000ec5d  UARTTiva_readCancel                                                  
0000ec95  SysCtlPeripheralEnable                                               
0000ecc9  __TI_readmsg                                                         
0000ecfd  bmi160_readConvert                                                   
0000ed31  ti_sysbios_family_arm_lm4_Timer_setPeriodMicroSecs__E                
0000ed69  ti_sysbios_family_arm_m3_Hwi_Instance_finalize__E                    
0000eda1  ti_sysbios_family_arm_m3_Hwi_excNmi__I                               
0000edd9  ti_sysbios_hal_Hwi_checkStack                                        
0000ee0d  ti_sysbios_knl_Clock_construct                                       
0000ee41  xdc_runtime_Core_assignLabel__I                                      
0000ee75  xdc_runtime_Text_printVisFxn__I                                      
0000eea9  ti_sysbios_hal_Hwi_initStack                                         
0000eedd  GPIO_enableInt                                                       
0000ef0d  GPIO_read                                                            
0000ef3d  I2C_open                                                             
0000ef6d  PWMTiva_init                                                         
0000ef9d  PWM_open                                                             
0000efcd  UART_open                                                            
0000effd  ti_sysbios_BIOS_atExitFunc__I                                        
0000f031  ti_sysbios_family_arm_lm4_Timer_stop__E                              
0000f061  ti_sysbios_family_arm_m3_TaskSupport_start__E                        
0000f061  ti_sysbios_knl_Task_SupportProxy_start__E                            
0000f091  ti_sysbios_gates_GateHwi_Object__create__S                           
0000f0c1  ti_sysbios_gates_GateHwi_create                                      
0000f0f1  ti_sysbios_gates_GateMutexPri_Object__create__S                      
0000f121  ti_sysbios_gates_GateMutexPri_create                                 
0000f151  ti_sysbios_gates_GateMutex_Object__create__S                         
0000f181  ti_sysbios_heaps_HeapMem_Object__create__S                           
0000f1b1  ti_sysbios_knl_Event_pendTimeout__I                                  
0000f1e1  ti_sysbios_knl_Semaphore_construct                                   
0000f211  ti_sysbios_knl_Semaphore_pendTimeout__I                              
0000f241  ti_sysbios_knl_Task_unblockI__E                                      
0000f271  xdc_runtime_SysMin_abort__E                                          
0000f271  xdc_runtime_System_SupportProxy_abort__E                             
0000f2a1  xdc_runtime_System_processAtExit__E                                  
0000f2d1  GrStringNextCharGet                                                  
0000f2ff  __aeabi_i2d                                                          
0000f32d  EK_TM4C1294XL_initUART                                               
0000f359  GrFontBaselineGet                                                    
0000f385  GrFontHeightGet                                                      
0000f3b1  RectangularButtonMsgProc                                             
0000f3dd  SliderMsgProc                                                        
0000f435  clk0Fxn                                                              
0000f461  removeSensorPage                                                     
0000f48d  ti_sysbios_knl_Clock_doTick__I                                       
0000f4b9  ti_sysbios_knl_Event_construct                                       
0000f4e5  ti_sysbios_knl_Queue_construct                                       
0000f511  ti_sysbios_knl_Task_restore__E                                       
0000f53d  xdc_runtime_Text_cordText__E                                         
0000f569  GPIODirModeSet                                                       
0000f593  bmi160_delay                                                         
0000f5bd  xdc_runtime_System_putchar__I                                        
0000f611  ti_sysbios_hal_Timer_Instance_init__E                                
0000f639  ti_sysbios_knl_Clock_addI__E                                         
0000f661  ti_sysbios_knl_Swi_Module_startup__E                                 
0000f689  GrFontInfoGet                                                        
0000f6af  ti_sysbios_family_arm_m3_Hwi_pendSV__I                               
0000f6d3  ti_sysbios_family_arm_m3_Hwi_return                                  
0000f6d5  xdc_runtime_System_avprintf__E                                       
0000f6fd  BackGraphSelect                                                      
0000f721  BackMainGraph                                                        
0000f745  RemoveGraph                                                          
0000f769  RemoveMainPage                                                       
0000f78d  backMainSensor                                                       
0000f7b1  ti_sysbios_BIOS_errorRaiseHook__I                                    
0000f7d5  ti_sysbios_BIOS_registerRTSLock__I                                   
0000f7f9  ti_sysbios_BIOS_removeRTSLock__I                                     
0000f81d  ti_sysbios_BIOS_startFunc__I                                         
0000f841  ti_sysbios_BIOS_RtsGateProxy_Object__delete__S                       
0000f841  ti_sysbios_gates_GateMutexPri_Object__delete__S                      
0000f865  ti_sysbios_gates_GateMutex_Object__delete__S                         
0000f865  ti_sysbios_heaps_HeapMem_Module_GateProxy_Object__delete__S          
0000f889  ti_sysbios_knl_Clock_Module_startup__E                               
0000f8b1  ti_sysbios_knl_Task_restoreHwi__E                                    
0000f8d5  xdc_runtime_System_vprintf__E                                        
0000f8f9  GrFontGlyphDataGet                                                   
0000f91b  PWMGenConfigure                                                      
0000f93d  PWMTiva_getPeriodCounts                                              
0000f961  ti_sysbios_family_arm_lm4_Timer_write__I                             
0000f983  xdc_runtime_SysMin_output__I                                         
0000f9c5  initEstop                                                            
0000f9e5  __aeabi_ui2d                                                         
0000fa05  ti_sysbios_BIOS_rtsLock__I                                           
0000fa25  ti_sysbios_family_arm_lm4_Timer_Object__delete__S                    
0000fa25  ti_sysbios_hal_Timer_TimerProxy_Object__delete__S                    
0000fa25  ti_sysbios_knl_Clock_TimerProxy_Object__delete__S                    
0000fa49  ti_sysbios_family_arm_lm4_Timer_getFreq__E                           
0000fa69  ti_sysbios_family_arm_m3_Hwi_Object__delete__S                       
0000fa69  ti_sysbios_hal_Hwi_HwiProxy_Object__delete__S                        
0000fa89  ti_sysbios_family_arm_m3_Hwi_excHandlerAsm__I                        
0000faa9  ti_sysbios_family_arm_m3_Hwi_excHandler__I                           
0000fac9  ti_sysbios_gates_GateHwi_Object__delete__S                           
0000fac9  xdc_runtime_Main_Module_GateProxy_Object__delete__S                  
0000fac9  xdc_runtime_System_Module_GateProxy_Object__delete__S                
0000fae9  ti_sysbios_heaps_HeapMem_Object__delete__S                           
0000fae9  xdc_runtime_Memory_HeapProxy_Object__delete__S                       
0000fb09  ti_sysbios_knl_Clock_Object__destruct__S                             
0000fb29  ti_sysbios_knl_Idle_run__E                                           
0000fb49  ti_sysbios_knl_Semaphore_Object__destruct__S                         
0000fb69  xdc_runtime_Registry_findById__E                                     
0000fb89  xdc_runtime_SysMin_Module_startup__E                                 
0000fba9  GrFontCodepageGet                                                    
0000fbc7  PWMPulseWidthSet                                                     
0000fbe5  PWMTiva_getPeriodMicroSecs                                           
0000fc03  WidgetAdd                                                            
0000fc21  ti_sysbios_family_xxx_Hwi_switchAndRunFunc                           
0000fc3f  updatetime                                                           
0000fc5d  UARTDisable                                                          
0000fc79  WidgetPointerMessage                                                 
0000fcb1  initGraphBuffers                                                     
0000fccd  memccpy                                                              
0000fce9  ti_sysbios_family_arm_m3_Hwi_Object__destruct__S                     
0000fd09  ti_sysbios_gates_GateMutexPri_Instance_init__E                       
0000fd29  ti_sysbios_gates_GateMutex_Instance_init__E                          
0000fd45  ti_sysbios_hal_Timer_TimerProxy_create                               
0000fd61  ti_sysbios_knl_Queue_Object__destruct__S                             
0000fd81  ti_sysbios_knl_Queue_put__E                                          
0000fda1  ti_sysbios_knl_Task_enter__I                                         
0000fdbd  xdc_runtime_Error_raiseX__E                                          
0000fdd9  xdc_runtime_Memory_valloc__E                                         
0000fdf5  xdc_runtime_SysMin_exit__E                                           
0000fdf5  xdc_runtime_System_SupportProxy_exit__E                              
0000fe11  xdc_runtime_System_abort__E                                          
0000fe2d  copysign                                                             
0000fe2d  copysignl                                                            
0000fe47  ti_sysbios_family_arm_m3_Hwi_Handle__label__S                        
0000fe47  ti_sysbios_hal_Hwi_HwiProxy_Handle__label__S                         
0000fe61  ti_sysbios_gates_GateHwi_Handle__label__S                            
0000fe61  xdc_runtime_Main_Module_GateProxy_Handle__label__S                   
0000fe61  xdc_runtime_System_Module_GateProxy_Handle__label__S                 
0000fe7b  ti_sysbios_BIOS_RtsGateProxy_Handle__label__S                        
0000fe7b  ti_sysbios_gates_GateMutexPri_Handle__label__S                       
0000fe95  ti_sysbios_gates_GateMutex_Handle__label__S                          
0000fe95  ti_sysbios_heaps_HeapMem_Module_GateProxy_Handle__label__S           
0000feaf  ti_sysbios_heaps_HeapMem_Handle__label__S                            
0000feaf  xdc_runtime_Memory_HeapProxy_Handle__label__S                        
0000fec9  ti_sysbios_knl_Swi_Handle__label__S                                  
0000fee3  ti_sysbios_knl_Task_Handle__label__S                                 
0000fefd  xdc_runtime_System_aprintf__E                                        
0000ff17  xdc_runtime_System_printf__E                                         
0000ff31  EstopPower                                                           
0000ff49  GPIOPinTypeGPIOOutput                                                
0000ff61  TimerControlLevel                                                    
0000ff79  UART_Params_init                                                     
0000ff91  _args_main                                                           
0000ffc1  ti_sysbios_BIOS_rtsUnlock__I                                         
0000ffd9  ti_sysbios_family_arm_lm4_Timer_Module__startupDone__F               
0000ffd9  ti_sysbios_family_arm_lm4_Timer_Module__startupDone__S               
0000ffd9  ti_sysbios_hal_Timer_TimerProxy_Module__startupDone__S               
0000ffd9  ti_sysbios_knl_Clock_TimerProxy_Module__startupDone__S               
0000fff1  ti_sysbios_family_arm_m3_Hwi_Module__startupDone__F                  
0000fff1  ti_sysbios_family_arm_m3_Hwi_Module__startupDone__S                  
0000fff1  ti_sysbios_hal_Hwi_HwiProxy_Module__startupDone__S                   
00010009  ti_sysbios_family_arm_m3_TaskSupport_swap__E                         
00010009  ti_sysbios_knl_Task_SupportProxy_swap__E                             
00010015  ti_sysbios_knl_Task_swapReturn                                       
00010021  ti_sysbios_gates_GateMutex_leave__E                                  
00010039  ti_sysbios_knl_Clock_Module__startupDone__F                          
00010039  ti_sysbios_knl_Clock_Module__startupDone__S                          
00010051  ti_sysbios_knl_Task_sleepTimeout__I                                  
00010069  xdc_runtime_Error_check__E                                           
00010081  xdc_runtime_System_exit__E                                           
00010099  xdc_runtime_Text_ropeText__E                                         
000100b1  GrStringDraw                                                         
000100c7  I2CMasterErr                                                         
000100dd  strchr                                                               
000100f3  ti_sysbios_BIOS_exitFunc__I                                          
000101a3  CanvasMsgProc                                                        
000101e1  PWMClockSet                                                          
000101f5  SysCtlPWMClockSet                                                    
00010209  TimerDisable                                                         
0001021d  TouchScreenCallbackSet                                               
00010231  UARTEnable                                                           
00010245  WidgetMutexGet                                                       
00010259  strlen                                                               
0001026d  ti_sysbios_family_arm_m3_Hwi_Object__get__S                          
00010281  ti_sysbios_family_arm_m3_Hwi_switchFromBootStack__E                  
00010281  ti_sysbios_hal_Hwi_HwiProxy_switchFromBootStack__E                   
00010281  ti_sysbios_hal_Hwi_switchFromBootStack__E                            
00010295  ti_sysbios_heaps_HeapMem_Object__get__S                              
000102a9  ti_sysbios_knl_Event_Instance_init__E                                
000102bd  ti_sysbios_knl_Swi_Object__get__S                                    
000102d1  GPIOPinTypeEthernetLED                                               
000102e3  GPIOPinTypeGPIOInput                                                 
000102f5  GPIOPinTypeI2C                                                       
00010307  GPIOPinTypeI2CSCL                                                    
00010319  GPIOPinTypePWM                                                       
0001032b  GPIOPinTypeSSI                                                       
0001033d  GPIOPinTypeTimer                                                     
0001034f  GPIOPinTypeUART                                                      
00010361  GPIOPinTypeUSBAnalog                                                 
00010373  GPIOPinTypeUSBDigital                                                
00010385  PWMGenPeriodGet                                                      
00010397  PWMOutputInvert                                                      
000103a9  PWMOutputState                                                       
000103bb  RingBuf_construct                                                    
000103cd  SSIDataGetNonBlocking                                                
000103df  TimerLoadSet                                                         
000103f1  TimerMatchSet                                                        
00010403  TimerPrescaleMatchSet                                                
00010415  TimerPrescaleSet                                                     
00010429  ti_sysbios_hal_Hwi_Module_startup__E                                 
0001043b  GrContextFontSet                                                     
00010441  ti_sysbios_hal_Timer_Module_startup__E                               
00010453  wcslen                                                               
00010465  xdc_runtime_Startup_exec__I                                          
00010479  ti_catalog_arm_cortexm4_tiva_ce_Boot_init__I                         
00010489  ADCIntEnable                                                         
00010499  ChangeAccelDown                                                      
000104a9  ChangeAccelUp                                                        
000104b9  FPUEnable                                                            
000104c9  FPULazyStackingEnable                                                
000104d9  I2C_Params_init                                                      
000104e9  PWMGenPeriodSet                                                      
000104f9  PWM_Params_init                                                      
00010519  ti_sysbios_BIOS_getCpuFreq__E                                        
00010519  ti_sysbios_family_arm_lm4_TimestampProvider_getFreq__E               
00010519  xdc_runtime_Timestamp_SupportProxy_getFreq__E                        
00010519  xdc_runtime_Timestamp_getFreq__E                                     
00010529  ti_sysbios_BIOS_setThreadType__E                                     
00010539  osi_start                                                            
00010539  ti_sysbios_BIOS_start__E                                             
00010549  ti_sysbios_family_arm_lm4_TimestampProvider_rolloverFunc__E          
00010559  ti_sysbios_family_arm_m3_TaskSupport_glue                            
00010569  ti_sysbios_gates_GateMutexPri_Instance_finalize__E                   
00010579  ti_sysbios_gates_GateMutex_Instance_finalize__E                      
00010589  ti_sysbios_hal_Timer_TimerProxy_Object__create__S                    
00010599  ti_sysbios_knl_Mailbox_Object__get__S                                
000105a9  ti_sysbios_knl_Semaphore_Instance_finalize__E                        
000105b9  ti_sysbios_knl_Swi_disable__E                                        
000105c9  ti_sysbios_knl_Task_Object__get__S                                   
000105d9  osi_TaskDisable                                                      
000105d9  ti_sysbios_knl_Task_disable__E                                       
000105e9  uDMAEnable                                                           
000105f9  xdc_runtime_Gate_leaveSystem__E                                      
00010609  xdc_runtime_Memory_free__E                                           
00010619  xdc_runtime_SysMin_ready__E                                          
00010619  xdc_runtime_System_SupportProxy_ready__E                             
00010629  xdc_runtime_System_vsnprintf__E                                      
00010639  xdc_runtime_Text_visitRope__I                                        
00010649  ADCSequenceEnable                                                    
00010657  GPIOIntStatus                                                        
00010665  GrImageDraw                                                          
00010673  TimerEnable                                                          
00010681  UARTCharGetNonBlocking                                               
0001068f  UARTCharPutNonBlocking                                               
0001069d  __TI_decompress_none                                                 
000106ab  I2CMasterIntDisable                                                  
000106b1  ti_sysbios_knl_Idle_loop__E                                          
000106c1  ti_sysbios_knl_Queue_empty__E                                        
000106cf  GPIOIntEnable                                                        
000106db  PWMGenDisable                                                        
000106e7  PWMGenEnable                                                         
000106f3  RingBuf_peek                                                         
000106ff  TouchCheckTask                                                       
0001070b  UARTFlowControlSet                                                   
00010717  UARTTiva_init                                                        
00010725  _register_lock                                                       
00010731  _register_unlock                                                     
0001073d  btntest                                                              
00010749  __TI_zero_init                                                       
00010759  ti_sysbios_family_arm_lm4_Timer_getAvailMask__E                      
00010769  ti_sysbios_family_arm_lm4_Timer_getMaxTicks__E                       
00010779  ti_sysbios_family_arm_lm4_TimestampProvider_startTimer__E            
00010785  ti_sysbios_family_arm_m3_Hwi_Params__init__S                         
00010785  ti_sysbios_hal_Hwi_HwiProxy_Params__init__S                          
00010791  ti_sysbios_family_arm_m3_Hwi_disableFxn__E                           
00010791  ti_sysbios_hal_Hwi_HwiProxy_disable__E                               
000107a1  ti_sysbios_family_arm_m3_TaskSupport_checkStack__E                   
000107a1  ti_sysbios_knl_Task_SupportProxy_checkStack__E                       
000107b1  ti_sysbios_family_arm_m3_TaskSupport_getStackAlignment__E            
000107b1  ti_sysbios_knl_Task_SupportProxy_getStackAlignment__E                
000107bd  ti_sysbios_gates_GateHwi_Params__init__S                             
000107bd  xdc_runtime_Main_Module_GateProxy_Params__init__S                    
000107bd  xdc_runtime_System_Module_GateProxy_Params__init__S                  
000107c9  ti_sysbios_gates_GateHwi_enter__E                                    
000107d5  ti_sysbios_BIOS_RtsGateProxy_Params__init__S                         
000107d5  ti_sysbios_gates_GateMutexPri_Params__init__S                        
000107e1  ti_sysbios_hal_SecondsClock_set__E                                   
000107e1  ti_sysbios_hal_Seconds_SecondsProxy_set__E                           
000107e1  ti_sysbios_hal_Seconds_set__E                                        
000107ed  ti_sysbios_hal_Timer_Params__init__S                                 
000107f9  ti_sysbios_knl_Clock_Params__init__S                                 
00010809  ti_sysbios_knl_Clock_getTicks__E                                     
00010821  ti_sysbios_knl_Queue_Object__get__S                                  
0001082d  ti_sysbios_knl_Semaphore_Params__init__S                             
00010839  ti_sysbios_knl_Swi_Params__init__S                                   
00010845  ti_sysbios_knl_Task_Params__init__S                                  
00010851  uDMAControlBaseSet                                                   
0001085d  xdc_runtime_Error_init__E                                            
00010869  xdc_runtime_Gate_enterSystem__E                                      
00010875  xdc_runtime_Memory_calloc__E                                         
00010881  xdc_runtime_Memory_getMaxDefaultTypeAlign__E                         
0001088d  I2CMasterDisable                                                     
00010897  I2CMasterEnable                                                      
000108a1  I2CTiva_init                                                         
000108ab  I2C_transfer                                                         
000108bf  PWMTimerTiva_getPeriodCounts                                         
000108c9  PWM_setDuty                                                          
000108d3  SSIDataPut                                                           
000108dd  SSIEnable                                                            
000108e7  UARTCharGet                                                          
000108f1  UARTCharPut                                                          
000108fb  UARTIntDisable                                                       
00010905  UARTIntStatus                                                        
00010919  ti_sysbios_hal_Timer_Instance_finalize__E                            
00010923  xdc_runtime_Memory_HeapProxy_alloc__E                                
0001092d  xdc_runtime_Memory_HeapProxy_free__E                                 
00010937  EK_TM4C1294XL_initGPIO                                               
0001093f  GrMapISO8859_1_Unicode                                               
00010947  I2CMasterIntClear                                                    
0001094f  I2CMasterSlaveAddrSet                                                
0001095f  PWMTimerTiva_init                                                    
00010967  SSIBusy                                                              
0001096f  UARTIntEnable                                                        
00010977  UARTRxErrorGet                                                       
00010981  __aeabi_errno_addr                                                   
00010991  ti_sysbios_family_arm_lm4_Timer_masterDisable__I                     
00010999  ti_sysbios_family_arm_m3_Hwi_doSwiRestore__I                         
000109a1  ti_sysbios_family_arm_m3_Hwi_startup__E                              
000109a1  ti_sysbios_hal_Hwi_HwiProxy_startup__E                               
000109a1  ti_sysbios_hal_Hwi_startup__E                                        
000109b1  I2CMasterIntEnable                                                   
000109b7  I2CTiva_control                                                      
000109bd  PWMTimerTiva_getPeriodMicroSecs                                      
000109c3  SysCtlDelay                                                          
000109c9  UARTFIFOLevelSet                                                     
000109cf  UARTRxErrorClear                                                     
000109d5  WidgetMutexPut                                                       
000109db  xdc_runtime_System_Module_startup__E                                 
000109e1  ti_sysbios_family_arm_lm4_TimestampProvider_Module_startup__E        
000109e9  ti_sysbios_family_arm_m3_Hwi_doTaskRestore__I                        
000109f1  ti_sysbios_family_arm_m3_Hwi_restoreFxn__E                           
000109f1  ti_sysbios_hal_Hwi_HwiProxy_restore__E                               
000109f9  ti_sysbios_gates_GateHwi_leave__E                                    
00010a01  ti_sysbios_heaps_HeapMem_isBlocking__E                               
00010a09  ti_sysbios_knl_Clock_stop__E                                         
00010a11  ti_sysbios_knl_Queue_Instance_init__E                                
00010a19  ti_sysbios_knl_Swi_startup__E                                        
00010a21  ti_sysbios_family_arm_lm4_Timer_getPeriod__E                         
00010a29  ti_sysbios_gates_GateHwi_query__E                                    
00010a29  xdc_runtime_Main_Module_GateProxy_query__E                           
00010a29  xdc_runtime_System_Module_GateProxy_query__E                         
00010a31  ti_sysbios_BIOS_RtsGateProxy_query__E                                
00010a31  ti_sysbios_gates_GateMutexPri_query__E                               
00010a39  ti_sysbios_gates_GateMutex_query__E                                  
00010a39  ti_sysbios_heaps_HeapMem_Module_GateProxy_query__E                   
00010a41  ti_sysbios_knl_Task_startup__E                                       
00010a49  ti_sysbios_gates_GateHwi_Instance_init__E                            
00010a51  ti_sysbios_knl_Clock_logTick__E                                      
00010a58  xdc_runtime_Text_charTab__A                                          
00015f7d  g_pui8Logo                                                           
000161ca  g_pui8btn140x40                                                      
000163d7  g_pui8btn150x40Press                                                 
000165e4  g_pui8CompS                                                          
0001675f  g_pui8CompW                                                          
000168da  g_pui8accSlow                                                        
00016a55  g_pui8accfast                                                        
00016bd0  g_pui8accmid                                                         
00016d4b  g_pui8CompE                                                          
00016ec3  g_pui8CompN                                                          
0001703b  g_pui8Stop                                                           
0001719e  g_pui8Go                                                             
000172fe  g_pui8idle                                                           
0001745b  g_pui8Night                                                          
0001757f  xdc_runtime_Error_policy__C                                          
000176a0  g_pui8arrowRight                                                     
000177a7  _ctypes_                                                             
000178a8  g_pui8Day                                                            
000179a0  xdc_runtime_Text_nodeTab__A                                          
00017a7c  g_sFontCm16                                                          
00017b44  g_sFontCm20                                                          
00017c0c  g_sFontCmss12                                                        
00017cd4  g_sFontCmss12b                                                       
00017d9c  g_sFontCmss18b                                                       
00017e64  g_sFontCmss20                                                        
00017f2c  g_pui8arrowLeft                                                      
00017fd2  ti_catalog_arm_cortexm4_tiva_ce_Boot_Module__id__C                   
000180ee  g_pui8backBtn                                                        
00018240  PWM_config                                                           
000182f4  motorLibPWMTivaHWAttrs                                               
00018424  ti_sysbios_family_arm_lm4_Timer_Object__PARAMS__C                    
00018460  ti_sysbios_knl_Task_Object__PARAMS__C                                
0001849c  I2C_config                                                           
000184fc  ti_sysbios_family_arm_m3_Hwi_Object__PARAMS__C                       
0001852c  ti_sysbios_hal_Timer_Object__PARAMS__C                               
0001855c  xdc_runtime_Startup_sfxnTab__A                                       
0001858c  UARTTiva_fxnTable                                                    
000185b4  g_sKentec320x240x16_SSD2119                                          
000185dc  ti_sysbios_heaps_HeapMem_Module__FXNS__C                             
00018604  ti_sysbios_knl_Swi_Object__PARAMS__C                                 
0001862c  UART_defaultParams                                                   
00018650  i2cTivaHWAttrs                                                       
00018674  ti_sysbios_gates_GateHwi_Module__FXNS__C                             
00018698  ti_sysbios_gates_GateMutexPri_Module__FXNS__C                        
000186bc  ti_sysbios_gates_GateMutex_Module__FXNS__C                           
000186e0  ti_sysbios_heaps_HeapMem_Object__PARAMS__C                           
00018704  ti_sysbios_knl_Clock_Object__PARAMS__C                               
00018728  ti_sysbios_knl_Semaphore_Object__PARAMS__C                           
0001874c  PWMTimerTiva_fxnTable                                                
00018768  PWMTimerTiva_MAX_PRESCALAR_VALUE                                     
0001876a  PWMTimerTiva_MAX_MATCH_VALUE                                         
0001876c  PWMTiva_fxnTable                                                     
00018788  PWMTiva_MAX_PRESCALAR                                                
0001878a  PWMTiva_MAX_MATCH_VALUE                                              
0001878c  ti_sysbios_family_arm_lm4_Timer_Object__DESC__C                      
000187ac  ti_sysbios_family_arm_m3_Hwi_Object__DESC__C                         
000187cc  ti_sysbios_gates_GateHwi_Object__DESC__C                             
000187ec  ti_sysbios_gates_GateMutexPri_Object__DESC__C                        
0001880c  ti_sysbios_gates_GateMutex_Object__DESC__C                           
0001882c  ti_sysbios_hal_Timer_Object__DESC__C                                 
0001884c  ti_sysbios_heaps_HeapMem_Object__DESC__C                             
0001886c  ti_sysbios_knl_Clock_Object__DESC__C                                 
0001888c  ti_sysbios_knl_Event_Object__DESC__C                                 
000188ac  ti_sysbios_knl_Queue_Object__DESC__C                                 
000188cc  ti_sysbios_knl_Semaphore_Object__DESC__C                             
000188ec  ti_sysbios_knl_Swi_Object__DESC__C                                   
0001890c  ti_sysbios_knl_Task_Object__DESC__C                                  
0001892c  I2CTiva_fxnTable                                                     
00018948  g_pi32TouchParameters                                                
00018964  UART_config                                                          
0001897c  ti_sysbios_gates_GateHwi_Object__PARAMS__C                           
00018994  ti_sysbios_gates_GateMutexPri_Object__PARAMS__C                      
000189ac  ti_sysbios_gates_GateMutex_Object__PARAMS__C                         
000189c4  ti_sysbios_knl_Event_Object__PARAMS__C                               
000189dc  ti_sysbios_knl_Queue_Object__PARAMS__C                               
000189f4  uartTivaHWAttrs                                                      
00018a0c  xdc_runtime_Startup_sfxnRts__A                                       
00018a24  GPIOTiva_config                                                      
00018a38  xdc_runtime_Startup_firstFxns__A                                     
00018a4c  I2C_defaultParams                                                    
00018a5c  g_psDefaultCodePointMapTable                                         
00018a6c  motorLibPWMTimerTivaHWAttrs                                          
00018a7c  PWM_defaultParams                                                    
00018a90  ti_sysbios_family_arm_m3_Hwi_excHookFuncs__A                         
00018a98  ti_sysbios_knl_Idle_funcList__C                                      
00018aa0  xdc_runtime_Startup_firstFxns__C                                     
00018aa8  xdc_runtime_Startup_lastFxns__C                                      
00018ab0  ti_catalog_arm_cortexm4_tiva_ce_Boot_A_mustNotUseEnhancedClockMode__C
00018ab4  ti_catalog_arm_cortexm4_tiva_ce_Boot_Module__diagsEnabled__C         
00018ab8  ti_catalog_arm_cortexm4_tiva_ce_Boot_Module__diagsIncluded__C        
00018abc  ti_catalog_arm_cortexm4_tiva_ce_Boot_Module__diagsMask__C            
00018ac0  ti_sysbios_family_arm_lm4_Timer_E_cannotSupport__C                   
00018ac4  ti_sysbios_family_arm_lm4_Timer_E_invalidTimer__C                    
00018ac8  ti_sysbios_family_arm_lm4_Timer_E_noaltclk__C                        
00018acc  ti_sysbios_family_arm_lm4_Timer_E_notAvailable__C                    
00018ad0  ti_sysbios_family_arm_lm4_Timer_anyMask__C                           
00018ad4  ti_sysbios_family_arm_lm4_Timer_disableFunc__C                       
00018ad8  ti_sysbios_family_arm_lm4_Timer_enableFunc__C                        
00018adc  ti_sysbios_family_arm_lm4_Timer_numTimerDevices__C                   
00018ae0  ti_sysbios_family_arm_lm4_Timer_startupNeeded__C                     
00018ae4  ti_sysbios_family_arm_m3_Hwi_E_NMI__C                                
00018ae8  ti_sysbios_family_arm_m3_Hwi_E_alreadyDefined__C                     
00018aec  ti_sysbios_family_arm_m3_Hwi_E_busFault__C                           
00018af0  ti_sysbios_family_arm_m3_Hwi_E_debugMon__C                           
00018af4  ti_sysbios_family_arm_m3_Hwi_E_hardFault__C                          
00018af8  ti_sysbios_family_arm_m3_Hwi_E_memFault__C                           
00018afc  ti_sysbios_family_arm_m3_Hwi_E_noIsr__C                              
00018b00  ti_sysbios_family_arm_m3_Hwi_E_reserved__C                           
00018b04  ti_sysbios_family_arm_m3_Hwi_E_svCall__C                             
00018b08  ti_sysbios_family_arm_m3_Hwi_E_usageFault__C                         
00018b0c  ti_sysbios_family_arm_m3_Hwi_NUM_INTERRUPTS__C                       
00018b10  ti_sysbios_family_arm_m3_Hwi_Object__count__C                        
00018b14  ti_sysbios_family_arm_m3_Hwi_ccr__C                                  
00018b18  ti_sysbios_family_arm_m3_Hwi_excHandlerFunc__C                       
00018b1c  ti_sysbios_family_arm_m3_Hwi_excHookFuncs__C                         
00018b20  ti_sysbios_family_arm_m3_Hwi_nullIsrFunc__C                          
00018b24  ti_sysbios_family_arm_m3_Hwi_priGroup__C                             
00018b28  ti_sysbios_family_arm_m3_TaskSupport_stackAlignment__C               
00018b2c  ti_sysbios_gates_GateMutexPri_A_badContext__C                        
00018b30  ti_sysbios_gates_GateMutexPri_A_enterTaskDisabled__C                 
00018b34  ti_sysbios_gates_GateMutexPri_Instance_State_pendQ__O                
00018b38  ti_sysbios_gates_GateMutexPri_Module__diagsEnabled__C                
00018b3c  ti_sysbios_gates_GateMutexPri_Module__diagsIncluded__C               
00018b40  ti_sysbios_gates_GateMutexPri_Module__diagsMask__C                   
00018b44  ti_sysbios_gates_GateMutex_A_badContext__C                           
00018b48  ti_sysbios_gates_GateMutex_Instance_State_sem__O                     
00018b4c  ti_sysbios_gates_GateMutex_Module__diagsEnabled__C                   
00018b50  ti_sysbios_gates_GateMutex_Module__diagsIncluded__C                  
00018b54  ti_sysbios_gates_GateMutex_Module__diagsMask__C                      
00018b58  ti_sysbios_hal_Hwi_E_stackOverflow__C                                
00018b5c  ti_sysbios_hal_SecondsClock_Module_State_clock__O                    
00018b60  ti_sysbios_heaps_HeapMem_A_align__C                                  
00018b64  ti_sysbios_heaps_HeapMem_A_heapSize__C                               
00018b68  ti_sysbios_heaps_HeapMem_A_invalidFree__C                            
00018b6c  ti_sysbios_heaps_HeapMem_A_zeroBlock__C                              
00018b70  ti_sysbios_heaps_HeapMem_E_memory__C                                 
00018b74  ti_sysbios_heaps_HeapMem_Module__diagsEnabled__C                     
00018b78  ti_sysbios_heaps_HeapMem_Module__diagsIncluded__C                    
00018b7c  ti_sysbios_heaps_HeapMem_Module__diagsMask__C                        
00018b80  ti_sysbios_heaps_HeapMem_Module__gateObj__C                          
00018b84  ti_sysbios_heaps_HeapMem_Object__count__C                            
00018b88  ti_sysbios_heaps_HeapMem_reqAlign__C                                 
00018b8c  ti_sysbios_knl_Clock_A_badThreadType__C                              
00018b90  ti_sysbios_knl_Clock_Module_State_clockQ__O                          
00018b94  ti_sysbios_knl_Clock_Module__diagsEnabled__C                         
00018b98  ti_sysbios_knl_Clock_Module__diagsIncluded__C                        
00018b9c  ti_sysbios_knl_Clock_Module__diagsMask__C                            
00018ba0  ti_sysbios_knl_Clock_tickPeriod__C                                   
00018ba4  ti_sysbios_knl_Event_A_badContext__C                                 
00018ba8  ti_sysbios_knl_Event_A_eventInUse__C                                 
00018bac  ti_sysbios_knl_Event_A_nullEventId__C                                
00018bb0  ti_sysbios_knl_Event_A_nullEventMasks__C                             
00018bb4  ti_sysbios_knl_Event_A_pendTaskDisabled__C                           
00018bb8  ti_sysbios_knl_Event_Instance_State_pendQ__O                         
00018bbc  ti_sysbios_knl_Event_Module__diagsEnabled__C                         
00018bc0  ti_sysbios_knl_Event_Module__diagsIncluded__C                        
00018bc4  ti_sysbios_knl_Event_Module__diagsMask__C                            
00018bc8  ti_sysbios_knl_Idle_funcList__A                                      
00018bcc  ti_sysbios_knl_Mailbox_Instance_State_freeQue__O                     
00018bd0  ti_sysbios_knl_Mailbox_Object__count__C                              
00018bd4  ti_sysbios_knl_Mailbox_maxTypeAlign__C                               
00018bd8  ti_sysbios_knl_Semaphore_A_badContext__C                             
00018bdc  ti_sysbios_knl_Semaphore_A_noEvents__C                               
00018be0  ti_sysbios_knl_Semaphore_A_overflow__C                               
00018be4  ti_sysbios_knl_Semaphore_A_pendTaskDisabled__C                       
00018be8  ti_sysbios_knl_Semaphore_Instance_State_pendQ__O                     
00018bec  ti_sysbios_knl_Semaphore_Module__diagsEnabled__C                     
00018bf0  ti_sysbios_knl_Semaphore_Module__diagsIncluded__C                    
00018bf4  ti_sysbios_knl_Semaphore_Module__diagsMask__C                        
00018bf8  ti_sysbios_knl_Swi_A_badPriority__C                                  
00018bfc  ti_sysbios_knl_Swi_Module__diagsEnabled__C                           
00018c00  ti_sysbios_knl_Swi_Module__diagsIncluded__C                          
00018c04  ti_sysbios_knl_Swi_Module__diagsMask__C                              
00018c08  ti_sysbios_knl_Swi_Object__count__C                                  
00018c0c  ti_sysbios_knl_Task_A_badPriority__C                                 
00018c10  ti_sysbios_knl_Task_A_badTaskState__C                                
00018c14  ti_sysbios_knl_Task_A_badThreadType__C                               
00018c18  ti_sysbios_knl_Task_A_badTimeout__C                                  
00018c1c  ti_sysbios_knl_Task_A_noPendElem__C                                  
00018c20  ti_sysbios_knl_Task_A_sleepTaskDisabled__C                           
00018c24  ti_sysbios_knl_Task_E_spOutOfBounds__C                               
00018c28  ti_sysbios_knl_Task_E_stackOverflow__C                               
00018c2c  ti_sysbios_knl_Task_Module_State_inactiveQ__O                        
00018c30  ti_sysbios_knl_Task_Module__diagsEnabled__C                          
00018c34  ti_sysbios_knl_Task_Module__diagsIncluded__C                         
00018c38  ti_sysbios_knl_Task_Module__diagsMask__C                             
00018c3c  ti_sysbios_knl_Task_Object__count__C                                 
00018c40  ti_sysbios_knl_Task_allBlockedFunc__C                                
00018c44  ti_sysbios_knl_Task_defaultStackHeap__C                              
00018c48  ti_sysbios_knl_Task_defaultStackSize__C                              
00018c4c  ti_sysbios_knl_Task_numConstructedTasks__C                           
00018c50  xdc_runtime_Assert_E_assertFailed__C                                 
00018c54  xdc_runtime_Core_A_initializedParams__C                              
00018c58  xdc_runtime_Core_Module__diagsEnabled__C                             
00018c5c  xdc_runtime_Core_Module__diagsIncluded__C                            
00018c60  xdc_runtime_Core_Module__diagsMask__C                                
00018c64  xdc_runtime_Error_E_generic__C                                       
00018c68  xdc_runtime_Error_E_memory__C                                        
00018c6c  xdc_runtime_Error_Module__diagsEnabled__C                            
00018c70  xdc_runtime_Error_Module__diagsIncluded__C                           
00018c74  xdc_runtime_Error_Module__diagsMask__C                               
00018c78  xdc_runtime_Error_Module__loggerFxn8__C                              
00018c7c  xdc_runtime_Error_Module__loggerObj__C                               
00018c80  xdc_runtime_Error_policyFxn__C                                       
00018c84  xdc_runtime_Error_raiseHook__C                                       
00018c88  xdc_runtime_IGateProvider_Interface__BASE__C                         
00018c8c  xdc_runtime_IHeap_Interface__BASE__C                                 
00018c90  xdc_runtime_IModule_Interface__BASE__C                               
00018c94  xdc_runtime_Log_L_error__C                                           
00018c98  xdc_runtime_Memory_defaultHeapInstance__C                            
00018c9c  xdc_runtime_Startup_execImpl__C                                      
00018ca0  xdc_runtime_Startup_lastFxns__A                                      
00018ca4  xdc_runtime_Startup_maxPasses__C                                     
00018ca8  xdc_runtime_Startup_sfxnRts__C                                       
00018cac  xdc_runtime_Startup_sfxnTab__C                                       
00018cb0  xdc_runtime_SysMin_bufSize__C                                        
00018cb4  xdc_runtime_SysMin_outputFunc__C                                     
00018cb8  xdc_runtime_System_Module__gateObj__C                                
00018cbc  xdc_runtime_System_abortFxn__C                                       
00018cc0  xdc_runtime_System_exitFxn__C                                        
00018cc4  xdc_runtime_System_extendFxn__C                                      
00018cc8  xdc_runtime_System_maxAtexitHandlers__C                              
00018ccc  xdc_runtime_Text_charTab__C                                          
00018cd0  xdc_runtime_Text_nameEmpty__C                                        
00018cd4  xdc_runtime_Text_nameStatic__C                                       
00018cd8  xdc_runtime_Text_nameUnknown__C                                      
00018cdc  xdc_runtime_Text_nodeTab__C                                          
00018ce0  xdc_runtime_Text_visitRopeFxn__C                                     
00018ce4  ti_sysbios_family_arm_lm4_Timer_Module__id__C                        
00018ce6  ti_sysbios_family_arm_lm4_Timer_supportsAltclk__C                    
00018ce8  ti_sysbios_family_arm_m3_Hwi_Module__id__C                           
00018cea  ti_sysbios_gates_GateMutexPri_Module__id__C                          
00018cec  ti_sysbios_gates_GateMutex_Module__id__C                             
00018cee  ti_sysbios_hal_Hwi_Module__id__C                                     
00018cf0  ti_sysbios_heaps_HeapMem_Module__id__C                               
00018cf2  ti_sysbios_knl_Clock_Module__id__C                                   
00018cf4  ti_sysbios_knl_Event_Module__id__C                                   
00018cf6  ti_sysbios_knl_Semaphore_Module__id__C                               
00018cf8  ti_sysbios_knl_Swi_Module__id__C                                     
00018cfa  ti_sysbios_knl_Task_Module__id__C                                    
00018cfc  xdc_runtime_Core_Module__id__C                                       
00018cfe  xdc_runtime_Error_Module__loggerDefined__C                           
00018d00  xdc_runtime_Error_maxDepth__C                                        
00018d02  xdc_runtime_Main_Module__id__C                                       
00018d04  xdc_runtime_Memory_Module__id__C                                     
00018d06  xdc_runtime_SysMin_flushAtExit__C                                    
00018d08  xdc_runtime_Text_charCnt__C                                          
00018d0a  xdc_runtime_Text_isLoaded__C                                         
00018d0c  xdc_runtime_Text_registryModsLastId__C                               
00018d0e  xdc_runtime_Text_unnamedModsLastId__C                                
00018d10  __TI_static_base__                                                   
00019134  __TI_Handler_Table_Base                                              
00019140  __TI_Handler_Table_Limit                                             
00019150  __TI_CINIT_Base                                                      
00019168  __TI_CINIT_Limit                                                     
20000000  __start___llvm_prf_cnts                                              
20000000  __stop___llvm_prf_cnts                                               
20000000  ti_sysbios_family_arm_m3_Hwi_ramVectors                              
20000400  ti_sysbios_heaps_HeapMem_Instance_State_0_buf__A                     
20001400  readAccelStack                                                       
20001c00  readLightStack                                                       
20002400  task0Stack                                                           
20002c00  taskTouchStack                                                       
20003400  psDMAControlTable                                                    
20003800  xdc_runtime_SysMin_Module_State_0_outbuf__A                          
20003c00  ti_sysbios_family_arm_m3_Hwi_dispatchTable                           
20003f60  ti_sysbios_knl_Task_Instance_State_0_stack__A                        
20004160  AccelData                                                            
200042f0  LightData                                                            
20004480  i2cTivaObjects                                                       
20004740  __CIOBUF_                                                            
20004860  bmi160_accel_values                                                  
20004950  uartTivaObjects                                                      
20004a1c  EstopEvent                                                           
20004a20  Sensor_Filtered_Buffer                                               
20004b50  readAccelStruct                                                      
20004ba0  readLightStruct                                                      
20004bf0  task0Struct                                                          
20004c40  taskTouchStruct                                                      
20004c90  motorLibPWMObjects                                                   
20004cc8  sContext                                                             
20004cf4  ScreenGate                                                           
20004cf8  opt3001_light_values                                                 
20004d20  clk0Struct                                                           
20004d84  uartTivaRingBuffer                                                   
20004da4  datetime                                                             
20004dbc  gHwiprms                                                             
20004dd4  motorLibPWMTimerObjects                                              
20004dec  evtStruct                                                            
20004e10  i2cParams                                                            
20004e28  AccBox                                                               
20004e30  Banner                                                               
20004e38  BannerB                                                              
20004e40  CurrBox                                                              
20004e48  Distbox                                                              
20004e50  clearBox                                                             
20004e58  graphClear                                                           
20004e60  parmbuf                                                              
20004e68  SwiHandle                                                            
20004e6c  g_pi32ParmSet                                                        
20004e74  g_ui32Panel                                                          
20004e78  gateHwi                                                              
20004e80  i2c                                                                  
20004e84  postedStop                                                           
20004e88  swiAccelSensorFilterHandle                                           
20004e8c  swiLightSensorFilterHandle                                           
20004e90  timerclock                                                           
20004e94  uart                                                                 
20004e98  g_i16TouchX                                                          
20004e9a  g_i16TouchY                                                          
20004ea0  ti_sysbios_family_arm_lm4_Timer_Object__table__V                     
20004f20  ti_sysbios_knl_Swi_Module_State_0_readyQ__A                          
20004fa0  ti_sysbios_knl_Task_Module_State_0_readyQ__A                         
20005020  MotorSpeedSlider                                                     
2000507c  AccDownBtn                                                           
200050cc  AccUpBtn                                                             
2000511c  CurrentDownBtn                                                       
2000516c  CurrentUpBtn                                                         
200051bc  DistDownBtn                                                          
2000520c  DistUpBtn                                                            
2000525c  GraphPgBtn                                                           
200052ac  LightGraphBtn                                                        
200052fc  MotorGraphBtn                                                        
2000534c  MotorMode                                                            
2000539c  MotorPgBtn                                                           
200053ec  PowerGraphBtn                                                        
2000543c  SensorPgBtn                                                          
2000548c  TestGraphBtn                                                         
200054dc  backGraphBtn                                                         
2000552c  backGraphSelectBtn                                                   
2000557c  backMotorBtn                                                         
200055cc  backSensorBtn                                                        
2000561c  ti_sysbios_knl_Task_Object__table__V                                 
20005668  ti_sysbios_family_arm_m3_Hwi_Object__table__V                        
200056b0  ti_sysbios_knl_Task_Module__state__V                                 
200056f4  g_Acceleration                                                       
20005734  g_MotorStat                                                          
20005774  g_sCanvas2                                                           
200057b4  g_sCanvas3                                                           
200057f4  g_scompass                                                           
20005834  ti_sysbios_family_arm_lm4_Timer_Module_State_0_device__A             
20005874  ti_sysbios_hal_SecondsClock_Module__state__V                         
200058b0  ti_sysbios_family_arm_m3_Hwi_Module__state__V                        
200058e4  ti_sysbios_knl_Swi_Object__table__V                                  
20005914  g_sRoot                                                              
20005941  LightGraph                                                           
20005942  AccelGraph                                                           
20005943  OnSensorPage                                                         
20005944  ti_sysbios_knl_Clock_Module__state__V                                
20005970  LightSecond                                                          
20005978  AccelSecond                                                          
20005980  opt3001_filteredValue                                                
20005988  FilteredAccelPos                                                     
20005990  bmi160_filteredValue                                                 
20005998  Hall_changed                                                         
2000599c  desired_speed                                                        
200059a0  estop                                                                
200059a4  pwm_current                                                          
200059a8  error_sum                                                            
200059ac  current_speed                                                        
200059b0  current_speed_estop                                                  
200059b4  previous_speed                                                       
200059b8  previous_speed_estop                                                 
200059bc  ti_sysbios_BIOS_Module__state__V                                     
200059e0  ti_sysbios_family_arm_lm4_Timer_Module_State_0_handles__A            
20005a00  gpioPinConfigs                                                       
20005a1c  ti_sysbios_gates_GateMutex_Object__table__V                          
20005a38  ti_sysbios_knl_Swi_Module__state__V                                  
20005a6c  ti_sysbios_gates_GateMutexPri_Object__table__V                       
20005a84  ti_sysbios_heaps_HeapMem_Object__table__V                            
20005a9c  motorStartStop                                                       
20005a9d  HA                                                                   
20005a9e  HB                                                                   
20005a9f  HC                                                                   
20005aa0  LowLight                                                             
20005aa1  ongraph                                                              
20005aa4  currentDirection                                                     
20005aa8  CurrentMotorStat                                                     
20005aac  CurrentAcceleration                                                  
20005ab0  ti_sysbios_family_arm_lm4_Timer_Module__state__V                     
20005abc  xdc_runtime_SysMin_Module__state__V                                  
20005ac8  _lock                                                                
20005acc  _unlock                                                              
20005ad0  gpioCallbackFunctions                                                
20005ad8  ti_sysbios_family_arm_lm4_Timer_Module__root__V                      
20005ae0  ti_sysbios_family_arm_lm4_TimestampProvider_Module__state__V         
20005ae8  ti_sysbios_family_arm_m3_Hwi_Module__root__V                         
20005af0  ti_sysbios_gates_GateHwi_Module__root__V                             
20005af8  ti_sysbios_gates_GateMutexPri_Module__root__V                        
20005b00  ti_sysbios_gates_GateMutex_Module__root__V                           
20005b08  ti_sysbios_hal_Timer_Module__root__V                                 
20005b10  ti_sysbios_heaps_HeapMem_Module__root__V                             
20005b18  ti_sysbios_knl_Clock_Module__root__V                                 
20005b20  ti_sysbios_knl_Event_Module__root__V                                 
20005b28  ti_sysbios_knl_Queue_Module__root__V                                 
20005b30  ti_sysbios_knl_Semaphore_Module__root__V                             
20005b38  ti_sysbios_knl_Swi_Module__root__V                                   
20005b40  ti_sysbios_knl_Task_Module__root__V                                  
20005b48  xdc_runtime_Registry_Module__state__V                                
20005b50  xdc_runtime_Startup_Module__state__V                                 
20005b58  xdc_runtime_System_Module_State_0_atexitHandlers__A                  
20005b60  xdc_runtime_System_Module__state__V                                  
20005b68  AccelStop                                                            
20005b6a  PowerEstop                                                           
20005b6c  EStop                                                                
20005b6e  ti_sysbios_family_arm_m3_Hwi_Module_State_0_excActive__A             
20005b76  xdc_runtime_Error_Module__state__V                                   
20005b78  MaxAccel                                                             
20005b88  errno                                                                
20005b8c  main_func_sp                                                         
20005b90  ti_sysbios_family_arm_m3_Hwi_Module_State_0_excContext__A            
20005b94  ti_sysbios_family_arm_m3_Hwi_Module_State_0_excStack__A              
20005b98  ti_sysbios_gates_GateHwi_Object__table__V                            
20005b9c  ti_sysbios_knl_Task_Module_State_0_idleTask__A                       
20005ba0  g_i16TouchMin                                                        
20005ba4  xdc_runtime_Memory_Module__state__V                                  
20005ba8  __stack                                                              
20005fa8  __STACK_END                                                          
e000e000  ti_sysbios_family_arm_m3_Hwi_nvic                                    
ffffffff  __TI_pprof_out_hndl                                                  
ffffffff  __TI_prof_data_size                                                  
ffffffff  __TI_prof_data_start                                                 
ffffffff  __binit__                                                            
ffffffff  __c_args__                                                           
ffffffff  binit                                                                
UNDEFED   SHT$$INIT_ARRAY$$Base                                                
UNDEFED   SHT$$INIT_ARRAY$$Limit                                               

[1104 symbols]
